TN:
SF:/usr/local/include/c++/13.1.0/ext/atomicity.h
DA:52,88
DA:66,0
DA:71,0
DA:84,58
DA:85,58
DA:86,58
DA:92,30
DA:98,58
DA:99,58
DA:101,0
DA:108,30
DA:112,30
end_of_record
SF:/usr/include/gtest/internal/gtest-port.h
FN:977,_ZN7testing8internal8GTestLog9GetStreamEv
FNDA:0,_ZN7testing8internal8GTestLog9GetStreamEv
DA:977,0
end_of_record
SF:/usr/local/include/c++/13.1.0/bits/vector.tcc
FN:111,_ZNSt6vectorISt8weak_ptrI6WidgetESaIS2_EE12emplace_backIJSt10shared_ptrIS1_EEEERS2_DpOT_
FNDA:6,_ZNSt6vectorISt8weak_ptrI6WidgetESaIS2_EE12emplace_backIJSt10shared_ptrIS1_EEEERS2_DpOT_
FN:445,_ZNSt6vectorISt8weak_ptrI6WidgetESaIS2_EE17_M_realloc_insertIJSt10shared_ptrIS1_EEEEvN9__gnu_cxx17__normal_iteratorIPS2_S4_EEDpOT_
FNDA:6,_ZNSt6vectorISt8weak_ptrI6WidgetESaIS2_EE17_M_realloc_insertIJSt10shared_ptrIS1_EEEEvN9__gnu_cxx17__normal_iteratorIPS2_S4_EEDpOT_
DA:111,6
DA:114,6
DA:117,0
DA:119,0
DA:123,6
DA:125,6
DA:445,6
DA:455,6
DA:456,6
DA:457,6
DA:458,6
DA:459,6
DA:460,6
DA:468,6
DA:469,6
DA:475,6
DA:480,6
DA:481,6
DA:483,6
DA:485,6
DA:486,6
DA:519,6
DA:520,6
DA:521,6
DA:522,6
DA:523,6
DA:524,6
end_of_record
SF:/usr/local/include/c++/13.1.0/tuple
FN:81,_ZNSt10_Head_baseILm1ESt14default_deleteINSt7__cxx1112basic_stringIcSt11char_traitsIcESaIcEEEELb1EEC2Ev
FNDA:2,_ZNSt10_Head_baseILm1ESt14default_deleteINSt7__cxx1112basic_stringIcSt11char_traitsIcESaIcEEEELb1EEC2Ev
FN:125,_ZNSt10_Head_baseILm1ESt14default_deleteINSt7__cxx1118basic_stringstreamIcSt11char_traitsIcESaIcEEEELb1EE7_M_headERS8_
FNDA:0,_ZNSt10_Head_baseILm1ESt14default_deleteINSt7__cxx1118basic_stringstreamIcSt11char_traitsIcESaIcEEEELb1EE7_M_headERS8_
FN:125,_ZNSt10_Head_baseILm1ESt14default_deleteINSt7__cxx1112basic_stringIcSt11char_traitsIcESaIcEEEELb1EE7_M_headERS8_
FNDA:0,_ZNSt10_Head_baseILm1ESt14default_deleteINSt7__cxx1112basic_stringIcSt11char_traitsIcESaIcEEEELb1EE7_M_headERS8_
FN:190,_ZNSt10_Head_baseILm0EPNSt7__cxx1112basic_stringIcSt11char_traitsIcESaIcEEELb0EEC2Ev
FNDA:2,_ZNSt10_Head_baseILm0EPNSt7__cxx1112basic_stringIcSt11char_traitsIcESaIcEEELb0EEC2Ev
FN:234,_ZNSt10_Head_baseILm0EPNSt7__cxx1118basic_stringstreamIcSt11char_traitsIcESaIcEEELb0EE7_M_headERS7_
FNDA:0,_ZNSt10_Head_baseILm0EPNSt7__cxx1118basic_stringstreamIcSt11char_traitsIcESaIcEEELb0EE7_M_headERS7_
FN:234,_ZNSt10_Head_baseILm0EPNSt7__cxx1112basic_stringIcSt11char_traitsIcESaIcEEELb0EE7_M_headERS7_
FNDA:14,_ZNSt10_Head_baseILm0EPNSt7__cxx1112basic_stringIcSt11char_traitsIcESaIcEEELb0EE7_M_headERS7_
FN:237,_ZNSt10_Head_baseILm0EPNSt7__cxx1118basic_stringstreamIcSt11char_traitsIcESaIcEEELb0EE7_M_headERKS7_
FNDA:0,_ZNSt10_Head_baseILm0EPNSt7__cxx1118basic_stringstreamIcSt11char_traitsIcESaIcEEELb0EE7_M_headERKS7_
FN:237,_ZNSt10_Head_baseILm0EPNSt7__cxx1112basic_stringIcSt11char_traitsIcESaIcEEELb0EE7_M_headERKS7_
FNDA:0,_ZNSt10_Head_baseILm0EPNSt7__cxx1112basic_stringIcSt11char_traitsIcESaIcEEELb0EE7_M_headERKS7_
FN:269,_ZNSt11_Tuple_implILm0EJPNSt7__cxx1112basic_stringIcSt11char_traitsIcESaIcEEESt14default_deleteIS5_EEE7_M_headERS9_
FNDA:14,_ZNSt11_Tuple_implILm0EJPNSt7__cxx1112basic_stringIcSt11char_traitsIcESaIcEEESt14default_deleteIS5_EEE7_M_headERS9_
FN:269,_ZNSt11_Tuple_implILm0EJPNSt7__cxx1118basic_stringstreamIcSt11char_traitsIcESaIcEEESt14default_deleteIS5_EEE7_M_headERS9_
FNDA:0,_ZNSt11_Tuple_implILm0EJPNSt7__cxx1118basic_stringstreamIcSt11char_traitsIcESaIcEEESt14default_deleteIS5_EEE7_M_headERS9_
FN:272,_ZNSt11_Tuple_implILm0EJPNSt7__cxx1118basic_stringstreamIcSt11char_traitsIcESaIcEEESt14default_deleteIS5_EEE7_M_headERKS9_
FNDA:0,_ZNSt11_Tuple_implILm0EJPNSt7__cxx1118basic_stringstreamIcSt11char_traitsIcESaIcEEESt14default_deleteIS5_EEE7_M_headERKS9_
FN:272,_ZNSt11_Tuple_implILm0EJPNSt7__cxx1112basic_stringIcSt11char_traitsIcESaIcEEESt14default_deleteIS5_EEE7_M_headERKS9_
FNDA:0,_ZNSt11_Tuple_implILm0EJPNSt7__cxx1112basic_stringIcSt11char_traitsIcESaIcEEESt14default_deleteIS5_EEE7_M_headERKS9_
FN:280,_ZNSt11_Tuple_implILm0EJPNSt7__cxx1112basic_stringIcSt11char_traitsIcESaIcEEESt14default_deleteIS5_EEEC2Ev
FNDA:2,_ZNSt11_Tuple_implILm0EJPNSt7__cxx1112basic_stringIcSt11char_traitsIcESaIcEEESt14default_deleteIS5_EEEC2Ev
FN:497,_ZNSt11_Tuple_implILm1EJSt14default_deleteINSt7__cxx1118basic_stringstreamIcSt11char_traitsIcESaIcEEEEEE7_M_headERS8_
FNDA:0,_ZNSt11_Tuple_implILm1EJSt14default_deleteINSt7__cxx1118basic_stringstreamIcSt11char_traitsIcESaIcEEEEEE7_M_headERS8_
FN:497,_ZNSt11_Tuple_implILm1EJSt14default_deleteINSt7__cxx1112basic_stringIcSt11char_traitsIcESaIcEEEEEE7_M_headERS8_
FNDA:0,_ZNSt11_Tuple_implILm1EJSt14default_deleteINSt7__cxx1112basic_stringIcSt11char_traitsIcESaIcEEEEEE7_M_headERS8_
FN:503,_ZNSt11_Tuple_implILm1EJSt14default_deleteINSt7__cxx1112basic_stringIcSt11char_traitsIcESaIcEEEEEEC2Ev
FNDA:2,_ZNSt11_Tuple_implILm1EJSt14default_deleteINSt7__cxx1112basic_stringIcSt11char_traitsIcESaIcEEEEEEC2Ev
FN:1310,_ZNSt5tupleIJPNSt7__cxx1112basic_stringIcSt11char_traitsIcESaIcEEESt14default_deleteIS5_EEEC2ILb1ELb1EEEv
FNDA:2,_ZNSt5tupleIJPNSt7__cxx1112basic_stringIcSt11char_traitsIcESaIcEEESt14default_deleteIS5_EEEC2ILb1ELb1EEEv
FN:1773,_ZSt12__get_helperILm0EPNSt7__cxx1118basic_stringstreamIcSt11char_traitsIcESaIcEEEJSt14default_deleteIS5_EEERT0_RSt11_Tuple_implIXT_EJS9_DpT1_EE
FNDA:0,_ZSt12__get_helperILm0EPNSt7__cxx1118basic_stringstreamIcSt11char_traitsIcESaIcEEEJSt14default_deleteIS5_EEERT0_RSt11_Tuple_implIXT_EJS9_DpT1_EE
FN:1773,_ZSt12__get_helperILm0EPNSt7__cxx1112basic_stringIcSt11char_traitsIcESaIcEEEJSt14default_deleteIS5_EEERT0_RSt11_Tuple_implIXT_EJS9_DpT1_EE
FNDA:14,_ZSt12__get_helperILm0EPNSt7__cxx1112basic_stringIcSt11char_traitsIcESaIcEEEJSt14default_deleteIS5_EEERT0_RSt11_Tuple_implIXT_EJS9_DpT1_EE
FN:1773,_ZSt12__get_helperILm1ESt14default_deleteINSt7__cxx1118basic_stringstreamIcSt11char_traitsIcESaIcEEEEJEERT0_RSt11_Tuple_implIXT_EJS8_DpT1_EE
FNDA:0,_ZSt12__get_helperILm1ESt14default_deleteINSt7__cxx1118basic_stringstreamIcSt11char_traitsIcESaIcEEEEJEERT0_RSt11_Tuple_implIXT_EJS8_DpT1_EE
FN:1773,_ZSt12__get_helperILm1ESt14default_deleteINSt7__cxx1112basic_stringIcSt11char_traitsIcESaIcEEEEJEERT0_RSt11_Tuple_implIXT_EJS8_DpT1_EE
FNDA:0,_ZSt12__get_helperILm1ESt14default_deleteINSt7__cxx1112basic_stringIcSt11char_traitsIcESaIcEEEEJEERT0_RSt11_Tuple_implIXT_EJS8_DpT1_EE
FN:1778,_ZSt12__get_helperILm0EPNSt7__cxx1112basic_stringIcSt11char_traitsIcESaIcEEEJSt14default_deleteIS5_EEERKT0_RKSt11_Tuple_implIXT_EJS9_DpT1_EE
FNDA:0,_ZSt12__get_helperILm0EPNSt7__cxx1112basic_stringIcSt11char_traitsIcESaIcEEEJSt14default_deleteIS5_EEERKT0_RKSt11_Tuple_implIXT_EJS9_DpT1_EE
FN:1778,_ZSt12__get_helperILm0EPNSt7__cxx1118basic_stringstreamIcSt11char_traitsIcESaIcEEEJSt14default_deleteIS5_EEERKT0_RKSt11_Tuple_implIXT_EJS9_DpT1_EE
FNDA:0,_ZSt12__get_helperILm0EPNSt7__cxx1118basic_stringstreamIcSt11char_traitsIcESaIcEEEJSt14default_deleteIS5_EEERKT0_RKSt11_Tuple_implIXT_EJS9_DpT1_EE
FN:1789,_ZSt3getILm1EJPNSt7__cxx1118basic_stringstreamIcSt11char_traitsIcESaIcEEESt14default_deleteIS5_EEERNSt13tuple_elementIXT_ESt5tupleIJDpT0_EEE4typeERSD_
FNDA:0,_ZSt3getILm1EJPNSt7__cxx1118basic_stringstreamIcSt11char_traitsIcESaIcEEESt14default_deleteIS5_EEERNSt13tuple_elementIXT_ESt5tupleIJDpT0_EEE4typeERSD_
FN:1789,_ZSt3getILm1EJPNSt7__cxx1112basic_stringIcSt11char_traitsIcESaIcEEESt14default_deleteIS5_EEERNSt13tuple_elementIXT_ESt5tupleIJDpT0_EEE4typeERSD_
FNDA:0,_ZSt3getILm1EJPNSt7__cxx1112basic_stringIcSt11char_traitsIcESaIcEEESt14default_deleteIS5_EEERNSt13tuple_elementIXT_ESt5tupleIJDpT0_EEE4typeERSD_
FN:1789,_ZSt3getILm0EJPNSt7__cxx1112basic_stringIcSt11char_traitsIcESaIcEEESt14default_deleteIS5_EEERNSt13tuple_elementIXT_ESt5tupleIJDpT0_EEE4typeERSD_
FNDA:14,_ZSt3getILm0EJPNSt7__cxx1112basic_stringIcSt11char_traitsIcESaIcEEESt14default_deleteIS5_EEERNSt13tuple_elementIXT_ESt5tupleIJDpT0_EEE4typeERSD_
FN:1789,_ZSt3getILm0EJPNSt7__cxx1118basic_stringstreamIcSt11char_traitsIcESaIcEEESt14default_deleteIS5_EEERNSt13tuple_elementIXT_ESt5tupleIJDpT0_EEE4typeERSD_
FNDA:0,_ZSt3getILm0EJPNSt7__cxx1118basic_stringstreamIcSt11char_traitsIcESaIcEEESt14default_deleteIS5_EEERNSt13tuple_elementIXT_ESt5tupleIJDpT0_EEE4typeERSD_
FN:1795,_ZSt3getILm0EJPNSt7__cxx1118basic_stringstreamIcSt11char_traitsIcESaIcEEESt14default_deleteIS5_EEERKNSt13tuple_elementIXT_ESt5tupleIJDpT0_EEE4typeERKSD_
FNDA:0,_ZSt3getILm0EJPNSt7__cxx1118basic_stringstreamIcSt11char_traitsIcESaIcEEESt14default_deleteIS5_EEERKNSt13tuple_elementIXT_ESt5tupleIJDpT0_EEE4typeERKSD_
FN:1795,_ZSt3getILm0EJPNSt7__cxx1112basic_stringIcSt11char_traitsIcESaIcEEESt14default_deleteIS5_EEERKNSt13tuple_elementIXT_ESt5tupleIJDpT0_EEE4typeERKSD_
FNDA:0,_ZSt3getILm0EJPNSt7__cxx1112basic_stringIcSt11char_traitsIcESaIcEEESt14default_deleteIS5_EEERKNSt13tuple_elementIXT_ESt5tupleIJDpT0_EEE4typeERKSD_
DA:81,2
DA:82,2
DA:125,0
DA:125,0
DA:190,2
DA:191,2
DA:234,14
DA:234,0
DA:237,0
DA:237,0
DA:269,14
DA:269,0
DA:272,0
DA:272,0
DA:280,2
DA:281,2
DA:497,0
DA:497,0
DA:503,2
DA:504,2
DA:1310,2
DA:1312,2
DA:1773,0
DA:1774,0
DA:1773,0
DA:1774,0
DA:1773,14
DA:1774,14
DA:1773,0
DA:1774,0
DA:1778,0
DA:1779,0
DA:1778,0
DA:1779,0
DA:1789,0
DA:1790,0
DA:1789,0
DA:1790,0
DA:1789,14
DA:1790,14
DA:1789,0
DA:1790,0
DA:1795,0
DA:1796,0
DA:1795,0
DA:1796,0
end_of_record
SF:/usr/local/include/c++/13.1.0/bits/alloc_traits.h
DA:482,674
DA:516,49
DA:539,6
DA:541,6
DA:559,0
DA:561,0
DA:575,893
DA:587,25
DA:947,18
DA:948,18
end_of_record
SF:/usr/local/include/c++/13.1.0/bits/stl_iterator.h
FN:1076,_ZN9__gnu_cxx17__normal_iteratorIPKSt8weak_ptrI6WidgetESt6vectorIS3_SaIS3_EEEC2ERKS5_
FNDA:20,_ZN9__gnu_cxx17__normal_iteratorIPKSt8weak_ptrI6WidgetESt6vectorIS3_SaIS3_EEEC2ERKS5_
FN:1076,_ZN9__gnu_cxx17__normal_iteratorIPSt8weak_ptrI6WidgetESt6vectorIS3_SaIS3_EEEC2ERKS4_
FNDA:30,_ZN9__gnu_cxx17__normal_iteratorIPSt8weak_ptrI6WidgetESt6vectorIS3_SaIS3_EEEC2ERKS4_
FN:1099,_ZNK9__gnu_cxx17__normal_iteratorIPKSt8weak_ptrI6WidgetESt6vectorIS3_SaIS3_EEEdeEv
FNDA:10,_ZNK9__gnu_cxx17__normal_iteratorIPKSt8weak_ptrI6WidgetESt6vectorIS3_SaIS3_EEEdeEv
FN:1099,_ZNK9__gnu_cxx17__normal_iteratorIPSt8weak_ptrI6WidgetESt6vectorIS3_SaIS3_EEEdeEv
FNDA:12,_ZNK9__gnu_cxx17__normal_iteratorIPSt8weak_ptrI6WidgetESt6vectorIS3_SaIS3_EEEdeEv
FN:1109,_ZN9__gnu_cxx17__normal_iteratorIPKSt8weak_ptrI6WidgetESt6vectorIS3_SaIS3_EEEppEv
FNDA:10,_ZN9__gnu_cxx17__normal_iteratorIPKSt8weak_ptrI6WidgetESt6vectorIS3_SaIS3_EEEppEv
FN:1157,_ZNK9__gnu_cxx17__normal_iteratorIPSt8weak_ptrI6WidgetESt6vectorIS3_SaIS3_EEEmiEl
FNDA:6,_ZNK9__gnu_cxx17__normal_iteratorIPSt8weak_ptrI6WidgetESt6vectorIS3_SaIS3_EEEmiEl
FN:1162,_ZNK9__gnu_cxx17__normal_iteratorIPKSt8weak_ptrI6WidgetESt6vectorIS3_SaIS3_EEE4baseEv
FNDA:40,_ZNK9__gnu_cxx17__normal_iteratorIPKSt8weak_ptrI6WidgetESt6vectorIS3_SaIS3_EEE4baseEv
FN:1162,_ZNK9__gnu_cxx17__normal_iteratorIPSt8weak_ptrI6WidgetESt6vectorIS3_SaIS3_EEE4baseEv
FNDA:24,_ZNK9__gnu_cxx17__normal_iteratorIPSt8weak_ptrI6WidgetESt6vectorIS3_SaIS3_EEE4baseEv
FN:1197,_ZN9__gnu_cxxeqIPKSt8weak_ptrI6WidgetESt6vectorIS3_SaIS3_EEEEbRKNS_17__normal_iteratorIT_T0_EESE_
FNDA:20,_ZN9__gnu_cxxeqIPKSt8weak_ptrI6WidgetESt6vectorIS3_SaIS3_EEEEbRKNS_17__normal_iteratorIT_T0_EESE_
FN:1334,_ZN9__gnu_cxxmiIPSt8weak_ptrI6WidgetESt6vectorIS3_SaIS3_EEEENS_17__normal_iteratorIT_T0_E15difference_typeERKSB_SE_
FNDA:6,_ZN9__gnu_cxxmiIPSt8weak_ptrI6WidgetESt6vectorIS3_SaIS3_EEEENS_17__normal_iteratorIT_T0_E15difference_typeERKSB_SE_
DA:1076,20
DA:1077,20
DA:1076,30
DA:1077,30
DA:1099,10
DA:1100,10
DA:1099,12
DA:1100,12
DA:1109,10
DA:1111,10
DA:1112,10
DA:1157,6
DA:1158,6
DA:1162,40
DA:1163,40
DA:1162,24
DA:1163,24
DA:1197,20
DA:1203,20
DA:1334,6
DA:1337,6
end_of_record
SF:/home/muzi/Documents/exer_repo_cpp/mordern_cpp/smart_pointer/shared_ptr/Widget.hh
FN:9,_ZN6WidgetD2Ev
FNDA:8,_ZN6WidgetD2Ev
FN:11,_ZN6Widget6createIJRiS1_EEESt10shared_ptrIS_EDpOT_
FNDA:8,_ZN6Widget6createIJRiS1_EEESt10shared_ptrIS_EDpOT_
FN:16,_ZN6Widget7processEv
FNDA:6,_ZN6Widget7processEv
FN:21,_ZN6Widget19read_process_widgetEv
FNDA:10,_ZN6Widget19read_process_widgetEv
FN:26,_ZN6WidgetC2Eii
FNDA:8,_ZN6WidgetC2Eii
DA:9,8
DA:11,8
DA:14,8
DA:16,6
DA:18,6
DA:19,6
DA:21,10
DA:23,10
DA:26,8
end_of_record
SF:/usr/local/include/c++/13.1.0/bits/stl_algobase.h
FN:233,_ZSt3minImERKT_S2_S2_
FNDA:12,_ZSt3minImERKT_S2_S2_
FN:257,_ZSt3maxImERKT_S2_S2_
FNDA:6,_ZSt3maxImERKT_S2_S2_
FN:316,_ZSt12__niter_baseIPSt8weak_ptrI6WidgetEET_S4_
FNDA:36,_ZSt12__niter_baseIPSt8weak_ptrI6WidgetEET_S4_
DA:233,12
DA:238,12
DA:239,0
DA:240,12
DA:257,6
DA:262,6
DA:263,6
DA:264,0
DA:316,36
DA:318,36
end_of_record
SF:/usr/local/include/c++/13.1.0/bits/shared_ptr_base.h
FN:95,_ZSt20__throw_bad_weak_ptrv
FNDA:0,_ZSt20__throw_bad_weak_ptrv
FN:129,_ZNSt16_Sp_counted_baseILN9__gnu_cxx12_Lock_policyE2EEC2Ev
FNDA:8,_ZNSt16_Sp_counted_baseILN9__gnu_cxx12_Lock_policyE2EEC2Ev
FN:133,_ZNSt16_Sp_counted_baseILN9__gnu_cxx12_Lock_policyE2EED2Ev
FNDA:8,_ZNSt16_Sp_counted_baseILN9__gnu_cxx12_Lock_policyE2EED2Ev
FN:133,_ZNSt16_Sp_counted_baseILN9__gnu_cxx12_Lock_policyE2EED0Ev
FNDA:0,_ZNSt16_Sp_counted_baseILN9__gnu_cxx12_Lock_policyE2EED0Ev
FN:143,_ZNSt16_Sp_counted_baseILN9__gnu_cxx12_Lock_policyE2EE10_M_destroyEv
FNDA:0,_ZNSt16_Sp_counted_baseILN9__gnu_cxx12_Lock_policyE2EE10_M_destroyEv
FN:172,_ZNSt16_Sp_counted_baseILN9__gnu_cxx12_Lock_policyE2EE19_M_release_last_useEv
FNDA:8,_ZNSt16_Sp_counted_baseILN9__gnu_cxx12_Lock_policyE2EE19_M_release_last_useEv
FN:198,_ZNSt16_Sp_counted_baseILN9__gnu_cxx12_Lock_policyE2EE24_M_release_last_use_coldEv
FNDA:8,_ZNSt16_Sp_counted_baseILN9__gnu_cxx12_Lock_policyE2EE24_M_release_last_use_coldEv
FN:203,_ZNSt16_Sp_counted_baseILN9__gnu_cxx12_Lock_policyE2EE15_M_weak_add_refEv
FNDA:30,_ZNSt16_Sp_counted_baseILN9__gnu_cxx12_Lock_policyE2EE15_M_weak_add_refEv
FN:208,_ZNSt16_Sp_counted_baseILN9__gnu_cxx12_Lock_policyE2EE15_M_weak_releaseEv
FNDA:30,_ZNSt16_Sp_counted_baseILN9__gnu_cxx12_Lock_policyE2EE15_M_weak_releaseEv
FN:226,_ZNKSt16_Sp_counted_baseILN9__gnu_cxx12_Lock_policyE2EE16_M_get_use_countEv
FNDA:20,_ZNKSt16_Sp_counted_baseILN9__gnu_cxx12_Lock_policyE2EE16_M_get_use_countEv
FN:268,_ZNSt16_Sp_counted_baseILN9__gnu_cxx12_Lock_policyE2EE23_M_add_ref_lock_nothrowEv
FNDA:12,_ZNSt16_Sp_counted_baseILN9__gnu_cxx12_Lock_policyE2EE23_M_add_ref_lock_nothrowEv
FN:317,_ZNSt16_Sp_counted_baseILN9__gnu_cxx12_Lock_policyE2EE10_M_releaseEv
FNDA:20,_ZNSt16_Sp_counted_baseILN9__gnu_cxx12_Lock_policyE2EE10_M_releaseEv
FN:423,_ZNSt15_Sp_counted_ptrIP6WidgetLN9__gnu_cxx12_Lock_policyE2EEC2ES1_
FNDA:8,_ZNSt15_Sp_counted_ptrIP6WidgetLN9__gnu_cxx12_Lock_policyE2EEC2ES1_
FN:427,_ZNSt15_Sp_counted_ptrIP6WidgetLN9__gnu_cxx12_Lock_policyE2EE10_M_disposeEv
FNDA:8,_ZNSt15_Sp_counted_ptrIP6WidgetLN9__gnu_cxx12_Lock_policyE2EE10_M_disposeEv
FN:431,_ZNSt15_Sp_counted_ptrIP6WidgetLN9__gnu_cxx12_Lock_policyE2EE10_M_destroyEv
FNDA:8,_ZNSt15_Sp_counted_ptrIP6WidgetLN9__gnu_cxx12_Lock_policyE2EE10_M_destroyEv
FN:435,_ZNSt15_Sp_counted_ptrIP6WidgetLN9__gnu_cxx12_Lock_policyE2EE14_M_get_deleterERKSt9type_info
FNDA:0,_ZNSt15_Sp_counted_ptrIP6WidgetLN9__gnu_cxx12_Lock_policyE2EE14_M_get_deleterERKSt9type_info
FN:913,_ZNSt14__shared_countILN9__gnu_cxx12_Lock_policyE2EEC2IP6WidgetEET_
FNDA:8,_ZNSt14__shared_countILN9__gnu_cxx12_Lock_policyE2EEC2IP6WidgetEET_
FN:927,_ZNSt14__shared_countILN9__gnu_cxx12_Lock_policyE2EEC2IP6WidgetEET_St17integral_constantIbLb0EE
FNDA:8,_ZNSt14__shared_countILN9__gnu_cxx12_Lock_policyE2EEC2IP6WidgetEET_St17integral_constantIbLb0EE
FN:1068,_ZNSt14__shared_countILN9__gnu_cxx12_Lock_policyE2EED2Ev
FNDA:20,_ZNSt14__shared_countILN9__gnu_cxx12_Lock_policyE2EED2Ev
FN:1105,_ZNKSt14__shared_countILN9__gnu_cxx12_Lock_policyE2EE16_M_get_use_countEv
FNDA:6,_ZNKSt14__shared_countILN9__gnu_cxx12_Lock_policyE2EE16_M_get_use_countEv
FN:1143,_ZNSt12__weak_countILN9__gnu_cxx12_Lock_policyE2EEC2Ev
FNDA:8,_ZNSt12__weak_countILN9__gnu_cxx12_Lock_policyE2EEC2Ev
FN:1146,_ZNSt12__weak_countILN9__gnu_cxx12_Lock_policyE2EEC2ERKSt14__shared_countILS1_2EE
FNDA:6,_ZNSt12__weak_countILN9__gnu_cxx12_Lock_policyE2EEC2ERKSt14__shared_countILS1_2EE
FN:1153,_ZNSt12__weak_countILN9__gnu_cxx12_Lock_policyE2EEC2ERKS2_
FNDA:16,_ZNSt12__weak_countILN9__gnu_cxx12_Lock_policyE2EEC2ERKS2_
FN:1160,_ZNSt12__weak_countILN9__gnu_cxx12_Lock_policyE2EEC2EOS2_
FNDA:0,_ZNSt12__weak_countILN9__gnu_cxx12_Lock_policyE2EEC2EOS2_
FN:1164,_ZNSt12__weak_countILN9__gnu_cxx12_Lock_policyE2EED2Ev
FNDA:30,_ZNSt12__weak_countILN9__gnu_cxx12_Lock_policyE2EED2Ev
FN:1171,_ZNSt12__weak_countILN9__gnu_cxx12_Lock_policyE2EEaSERKSt14__shared_countILS1_2EE
FNDA:8,_ZNSt12__weak_countILN9__gnu_cxx12_Lock_policyE2EEaSERKSt14__shared_countILS1_2EE
FN:1213,_ZNKSt12__weak_countILN9__gnu_cxx12_Lock_policyE2EE16_M_get_use_countEv
FNDA:10,_ZNKSt12__weak_countILN9__gnu_cxx12_Lock_policyE2EE16_M_get_use_countEv
FN:1241,_ZNSt14__shared_countILN9__gnu_cxx12_Lock_policyE2EEC2ERKSt12__weak_countILS1_2EE
FNDA:6,_ZNSt14__shared_countILN9__gnu_cxx12_Lock_policyE2EEC2ERKSt12__weak_countILS1_2EE
FN:1251,_ZNSt14__shared_countILN9__gnu_cxx12_Lock_policyE2EEC2ERKSt12__weak_countILS1_2EESt9nothrow_t
FNDA:6,_ZNSt14__shared_countILN9__gnu_cxx12_Lock_policyE2EEC2ERKSt12__weak_countILS1_2EESt9nothrow_t
FN:1347,_ZNKSt19__shared_ptr_accessI6WidgetLN9__gnu_cxx12_Lock_policyE2ELb0ELb0EEdeEv
FNDA:0,_ZNKSt19__shared_ptr_accessI6WidgetLN9__gnu_cxx12_Lock_policyE2ELb0ELb0EEdeEv
FN:1354,_ZNKSt19__shared_ptr_accessI6WidgetLN9__gnu_cxx12_Lock_policyE2ELb0ELb0EEptEv
FNDA:16,_ZNKSt19__shared_ptr_accessI6WidgetLN9__gnu_cxx12_Lock_policyE2ELb0ELb0EEptEv
FN:1362,_ZNKSt19__shared_ptr_accessI6WidgetLN9__gnu_cxx12_Lock_policyE2ELb0ELb0EE6_M_getEv
FNDA:16,_ZNKSt19__shared_ptr_accessI6WidgetLN9__gnu_cxx12_Lock_policyE2ELb0ELb0EE6_M_getEv
FN:1468,_ZNSt12__shared_ptrI6WidgetLN9__gnu_cxx12_Lock_policyE2EEC2IS0_vEEPT_
FNDA:8,_ZNSt12__shared_ptrI6WidgetLN9__gnu_cxx12_Lock_policyE2EEC2IS0_vEEPT_
FN:1524,_ZNSt12__shared_ptrI6WidgetLN9__gnu_cxx12_Lock_policyE2EED2Ev
FNDA:20,_ZNSt12__shared_ptrI6WidgetLN9__gnu_cxx12_Lock_policyE2EED2Ev
FN:1547,_ZNSt12__shared_ptrI6WidgetLN9__gnu_cxx12_Lock_policyE2EEC2IS0_vEERKSt10__weak_ptrIT_LS2_2EE
FNDA:6,_ZNSt12__shared_ptrI6WidgetLN9__gnu_cxx12_Lock_policyE2EEC2IS0_vEERKSt10__weak_ptrIT_LS2_2EE
FN:1665,_ZNKSt12__shared_ptrI6WidgetLN9__gnu_cxx12_Lock_policyE2EE3getEv
FNDA:28,_ZNKSt12__shared_ptrI6WidgetLN9__gnu_cxx12_Lock_policyE2EE3getEv
FN:1669,_ZNKSt12__shared_ptrI6WidgetLN9__gnu_cxx12_Lock_policyE2EEcvbEv
FNDA:2,_ZNKSt12__shared_ptrI6WidgetLN9__gnu_cxx12_Lock_policyE2EEcvbEv
FN:1731,_ZNSt12__shared_ptrI6WidgetLN9__gnu_cxx12_Lock_policyE2EEC2ERKSt10__weak_ptrIS0_LS2_2EESt9nothrow_t
FNDA:6,_ZNSt12__shared_ptrI6WidgetLN9__gnu_cxx12_Lock_policyE2EEC2ERKSt10__weak_ptrIS0_LS2_2EESt9nothrow_t
FN:1757,_ZNSt12__shared_ptrI6WidgetLN9__gnu_cxx12_Lock_policyE2EE31_M_enable_shared_from_this_withIS0_S0_EENSt9enable_ifIXsrNS3_15__has_esft_baseIT0_vEE5valueEvE4typeEPT_
FNDA:8,_ZNSt12__shared_ptrI6WidgetLN9__gnu_cxx12_Lock_policyE2EE31_M_enable_shared_from_this_withIS0_S0_EENSt9enable_ifIXsrNS3_15__has_esft_baseIT0_vEE5valueEvE4typeEPT_
FN:1987,_ZNSt10__weak_ptrI6WidgetLN9__gnu_cxx12_Lock_policyE2EEC2Ev
FNDA:8,_ZNSt10__weak_ptrI6WidgetLN9__gnu_cxx12_Lock_policyE2EEC2Ev
FN:1991,_ZNSt10__weak_ptrI6WidgetLN9__gnu_cxx12_Lock_policyE2EEC2ERKS3_
FNDA:16,_ZNSt10__weak_ptrI6WidgetLN9__gnu_cxx12_Lock_policyE2EEC2ERKS3_
FN:1993,_ZNSt10__weak_ptrI6WidgetLN9__gnu_cxx12_Lock_policyE2EED2Ev
FNDA:30,_ZNSt10__weak_ptrI6WidgetLN9__gnu_cxx12_Lock_policyE2EED2Ev
FN:2015,_ZNSt10__weak_ptrI6WidgetLN9__gnu_cxx12_Lock_policyE2EEC2IS0_vEERKSt12__shared_ptrIT_LS2_2EE
FNDA:6,_ZNSt10__weak_ptrI6WidgetLN9__gnu_cxx12_Lock_policyE2EEC2IS0_vEERKSt12__shared_ptrIT_LS2_2EE
FN:2019,_ZNSt10__weak_ptrI6WidgetLN9__gnu_cxx12_Lock_policyE2EEC2EOS3_
FNDA:0,_ZNSt10__weak_ptrI6WidgetLN9__gnu_cxx12_Lock_policyE2EEC2EOS3_
FN:2071,_ZNKSt10__weak_ptrI6WidgetLN9__gnu_cxx12_Lock_policyE2EE9use_countEv
FNDA:8,_ZNKSt10__weak_ptrI6WidgetLN9__gnu_cxx12_Lock_policyE2EE9use_countEv
FN:2075,_ZNKSt10__weak_ptrI6WidgetLN9__gnu_cxx12_Lock_policyE2EE7expiredEv
FNDA:2,_ZNKSt10__weak_ptrI6WidgetLN9__gnu_cxx12_Lock_policyE2EE7expiredEv
FN:2102,_ZNSt10__weak_ptrI6WidgetLN9__gnu_cxx12_Lock_policyE2EE9_M_assignEPS0_RKSt14__shared_countILS2_2EE
FNDA:8,_ZNSt10__weak_ptrI6WidgetLN9__gnu_cxx12_Lock_policyE2EE9_M_assignEPS0_RKSt14__shared_countILS2_2EE
DA:95,0
DA:96,0
DA:129,8
DA:130,8
DA:133,0
DA:134,0
DA:133,8
DA:134,8
DA:143,0
DA:144,0
DA:172,8
DA:175,8
DA:187,8
DA:188,8
DA:191,8
DA:193,8
DA:198,8
DA:199,8
DA:203,30
DA:204,30
DA:208,30
DA:212,60
DA:221,0
DA:223,30
DA:226,20
DA:230,20
DA:268,12
DA:272,12
DA:275,12
DA:276,0
DA:280,12
DA:283,12
DA:317,20
DA:321,20
DA:324,20
DA:328,20
DA:331,20
DA:332,20
DA:333,20
DA:334,20
DA:337,20
DA:343,0
DA:346,0
DA:347,0
DA:348,0
DA:350,40
DA:351,8
DA:353,8
DA:354,8
DA:423,8
DA:424,8
DA:427,8
DA:428,8
DA:431,8
DA:432,8
DA:435,0
DA:436,0
DA:913,8
DA:917,8
DA:919,0
DA:921,0
DA:922,0
DA:924,8
DA:927,8
DA:928,8
DA:929,8
DA:1068,20
DA:1070,20
DA:1071,20
DA:1072,20
DA:1105,6
DA:1106,6
DA:1143,8
DA:1144,8
DA:1146,6
DA:1147,6
DA:1149,6
DA:1150,6
DA:1151,6
DA:1153,16
DA:1154,16
DA:1156,16
DA:1157,16
DA:1158,16
DA:1160,0
DA:1161,0
DA:1162,0
DA:1164,30
DA:1166,30
DA:1167,30
DA:1168,30
DA:1171,8
DA:1173,8
DA:1174,8
DA:1175,8
DA:1176,8
DA:1177,0
DA:1178,8
DA:1179,8
DA:1213,10
DA:1214,10
DA:1241,6
DA:1242,6
DA:1244,6
DA:1245,0
DA:1246,6
DA:1251,6
DA:1253,6
DA:1255,6
DA:1256,0
DA:1257,6
DA:1347,0
DA:1349,0
DA:1350,0
DA:1354,16
DA:1357,16
DA:1362,16
DA:1363,16
DA:1468,8
DA:1469,8
DA:1473,8
DA:1474,8
DA:1524,20
DA:1547,6
DA:1548,6
DA:1552,6
DA:1553,6
DA:1665,28
DA:1666,28
DA:1669,2
DA:1670,2
DA:1731,6
DA:1732,6
DA:1734,6
DA:1735,6
DA:1757,8
DA:1759,8
DA:1760,8
DA:1761,8
DA:1987,8
DA:1988,8
DA:1989,8
DA:1991,16
DA:1993,30
DA:2015,6
DA:2016,6
DA:2017,6
DA:2019,0
DA:2020,0
DA:2021,0
DA:2071,8
DA:2072,8
DA:2075,2
DA:2076,2
DA:2102,8
DA:2104,8
DA:2106,8
DA:2107,8
DA:2109,8
end_of_record
SF:/usr/local/include/c++/13.1.0/bits/ptr_traits.h
FN:141,_ZNSt19__ptr_traits_ptr_toIPKcS0_Lb0EE10pointer_toERS0_
FNDA:630,_ZNSt19__ptr_traits_ptr_toIPKcS0_Lb0EE10pointer_toERS0_
FN:141,_ZNSt19__ptr_traits_ptr_toIPccLb0EE10pointer_toERc
FNDA:30,_ZNSt19__ptr_traits_ptr_toIPccLb0EE10pointer_toERc
DA:141,630
DA:142,630
DA:141,30
DA:142,30
end_of_record
SF:/usr/local/include/c++/13.1.0/bits/stl_vector.h
FN:99,_ZNSt12_Vector_baseISt8weak_ptrI6WidgetESaIS2_EE17_Vector_impl_dataC2Ev
FNDA:18,_ZNSt12_Vector_baseISt8weak_ptrI6WidgetESaIS2_EE17_Vector_impl_dataC2Ev
FN:137,_ZNSt12_Vector_baseISt8weak_ptrI6WidgetESaIS2_EE12_Vector_implC2Ev
FNDA:8,_ZNSt12_Vector_baseISt8weak_ptrI6WidgetESaIS2_EE12_Vector_implC2Ev
FN:143,_ZNSt12_Vector_baseISt8weak_ptrI6WidgetESaIS2_EE12_Vector_implC2ERKS3_
FNDA:10,_ZNSt12_Vector_baseISt8weak_ptrI6WidgetESaIS2_EE12_Vector_implC2ERKS3_
FN:298,_ZNSt12_Vector_baseISt8weak_ptrI6WidgetESaIS2_EE19_M_get_Tp_allocatorEv
FNDA:40,_ZNSt12_Vector_baseISt8weak_ptrI6WidgetESaIS2_EE19_M_get_Tp_allocatorEv
FN:303,_ZNKSt12_Vector_baseISt8weak_ptrI6WidgetESaIS2_EE19_M_get_Tp_allocatorEv
FNDA:22,_ZNKSt12_Vector_baseISt8weak_ptrI6WidgetESaIS2_EE19_M_get_Tp_allocatorEv
FN:312,_ZNSt12_Vector_baseISt8weak_ptrI6WidgetESaIS2_EEC2Ev
FNDA:8,_ZNSt12_Vector_baseISt8weak_ptrI6WidgetESaIS2_EEC2Ev
FN:330,_ZNSt12_Vector_baseISt8weak_ptrI6WidgetESaIS2_EEC2EmRKS3_
FNDA:10,_ZNSt12_Vector_baseISt8weak_ptrI6WidgetESaIS2_EEC2EmRKS3_
FN:364,_ZNSt12_Vector_baseISt8weak_ptrI6WidgetESaIS2_EED2Ev
FNDA:18,_ZNSt12_Vector_baseISt8weak_ptrI6WidgetESaIS2_EED2Ev
FN:375,_ZNSt12_Vector_baseISt8weak_ptrI6WidgetESaIS2_EE11_M_allocateEm
FNDA:16,_ZNSt12_Vector_baseISt8weak_ptrI6WidgetESaIS2_EE11_M_allocateEm
FN:383,_ZNSt12_Vector_baseISt8weak_ptrI6WidgetESaIS2_EE13_M_deallocateEPS2_m
FNDA:24,_ZNSt12_Vector_baseISt8weak_ptrI6WidgetESaIS2_EE13_M_deallocateEPS2_m
FN:393,_ZNSt12_Vector_baseISt8weak_ptrI6WidgetESaIS2_EE17_M_create_storageEm
FNDA:10,_ZNSt12_Vector_baseISt8weak_ptrI6WidgetESaIS2_EE17_M_create_storageEm
FN:499,_ZNSt6vectorISt8weak_ptrI6WidgetESaIS2_EE11_S_relocateEPS2_S5_S5_RS3_
FNDA:12,_ZNSt6vectorISt8weak_ptrI6WidgetESaIS2_EE11_S_relocateEPS2_S5_S5_RS3_
FN:526,_ZNSt6vectorISt8weak_ptrI6WidgetESaIS2_EEC2Ev
FNDA:8,_ZNSt6vectorISt8weak_ptrI6WidgetESaIS2_EEC2Ev
FN:596,_ZNSt6vectorISt8weak_ptrI6WidgetESaIS2_EEC2ERKS4_
FNDA:10,_ZNSt6vectorISt8weak_ptrI6WidgetESaIS2_EEC2ERKS4_
FN:728,_ZNSt6vectorISt8weak_ptrI6WidgetESaIS2_EED2Ev
FNDA:18,_ZNSt6vectorISt8weak_ptrI6WidgetESaIS2_EED2Ev
FN:868,_ZNSt6vectorISt8weak_ptrI6WidgetESaIS2_EE5beginEv
FNDA:12,_ZNSt6vectorISt8weak_ptrI6WidgetESaIS2_EE5beginEv
FN:878,_ZNKSt6vectorISt8weak_ptrI6WidgetESaIS2_EE5beginEv
FNDA:10,_ZNKSt6vectorISt8weak_ptrI6WidgetESaIS2_EE5beginEv
FN:888,_ZNSt6vectorISt8weak_ptrI6WidgetESaIS2_EE3endEv
FNDA:12,_ZNSt6vectorISt8weak_ptrI6WidgetESaIS2_EE3endEv
FN:898,_ZNKSt6vectorISt8weak_ptrI6WidgetESaIS2_EE3endEv
FNDA:10,_ZNKSt6vectorISt8weak_ptrI6WidgetESaIS2_EE3endEv
FN:987,_ZNKSt6vectorISt8weak_ptrI6WidgetESaIS2_EE4sizeEv
FNDA:38,_ZNKSt6vectorISt8weak_ptrI6WidgetESaIS2_EE4sizeEv
FN:993,_ZNKSt6vectorISt8weak_ptrI6WidgetESaIS2_EE8max_sizeEv
FNDA:12,_ZNKSt6vectorISt8weak_ptrI6WidgetESaIS2_EE8max_sizeEv
FN:1204,_ZNSt6vectorISt8weak_ptrI6WidgetESaIS2_EE5frontEv
FNDA:6,_ZNSt6vectorISt8weak_ptrI6WidgetESaIS2_EE5frontEv
FN:1228,_ZNSt6vectorISt8weak_ptrI6WidgetESaIS2_EE4backEv
FNDA:6,_ZNSt6vectorISt8weak_ptrI6WidgetESaIS2_EE4backEv
FN:1891,_ZNKSt6vectorISt8weak_ptrI6WidgetESaIS2_EE12_M_check_lenEmPKc
FNDA:6,_ZNKSt6vectorISt8weak_ptrI6WidgetESaIS2_EE12_M_check_lenEmPKc
FN:1911,_ZNSt6vectorISt8weak_ptrI6WidgetESaIS2_EE11_S_max_sizeERKS3_
FNDA:12,_ZNSt6vectorISt8weak_ptrI6WidgetESaIS2_EE11_S_max_sizeERKS3_
DA:99,18
DA:100,18
DA:101,18
DA:137,8
DA:139,8
DA:140,8
DA:143,10
DA:144,10
DA:145,10
DA:298,40
DA:299,40
DA:303,22
DA:304,22
DA:312,8
DA:330,10
DA:331,10
DA:332,10
DA:364,18
DA:366,18
DA:367,18
DA:368,18
DA:375,16
DA:378,32
DA:383,24
DA:386,24
DA:387,16
DA:388,24
DA:393,10
DA:395,10
DA:396,10
DA:397,10
DA:398,10
DA:499,12
DA:504,12
DA:526,8
DA:596,10
DA:598,20
DA:600,10
DA:601,10
DA:603,10
DA:604,10
DA:728,18
DA:730,18
DA:731,18
DA:733,18
DA:868,12
DA:869,12
DA:878,10
DA:879,10
DA:888,12
DA:889,12
DA:898,10
DA:899,10
DA:987,38
DA:988,38
DA:993,12
DA:994,12
DA:1204,6
DA:1207,6
DA:1228,6
DA:1231,6
DA:1891,6
DA:1893,6
DA:1894,0
DA:1896,6
DA:1897,6
DA:1911,12
DA:1916,12
DA:1918,12
DA:1919,12
end_of_record
SF:/usr/local/include/c++/13.1.0/bits/shared_ptr.h
FN:214,_ZNSt10shared_ptrI6WidgetEC2IS0_vEEPT_
FNDA:8,_ZNSt10shared_ptrI6WidgetEC2IS0_vEEPT_
FN:380,_ZNSt10shared_ptrI6WidgetEC2IS0_vEERKSt8weak_ptrIT_E
FNDA:6,_ZNSt10shared_ptrI6WidgetEC2IS0_vEERKSt8weak_ptrIT_E
FN:535,_ZNSt10shared_ptrI6WidgetEC2ERKSt8weak_ptrIS0_ESt9nothrow_t
FNDA:6,_ZNSt10shared_ptrI6WidgetEC2ERKSt8weak_ptrIS0_ESt9nothrow_t
FN:555,_ZSteqI6WidgetS0_EbRKSt10shared_ptrIT_ERKS1_IT0_E
FNDA:6,_ZSteqI6WidgetS0_EbRKSt10shared_ptrIT_ERKS1_IT0_E
FN:561,_ZSteqI6WidgetEbRKSt10shared_ptrIT_EDn
FNDA:2,_ZSteqI6WidgetEbRKSt10shared_ptrIT_EDn
FN:824,_ZNSt8weak_ptrI6WidgetEC2Ev
FNDA:8,_ZNSt8weak_ptrI6WidgetEC2Ev
FN:828,_ZNSt8weak_ptrI6WidgetEC2IS0_vEERKSt10shared_ptrIT_E
FNDA:6,_ZNSt8weak_ptrI6WidgetEC2IS0_vEERKSt10shared_ptrIT_E
FN:831,_ZNSt8weak_ptrI6WidgetEC2ERKS1_
FNDA:16,_ZNSt8weak_ptrI6WidgetEC2ERKS1_
FN:837,_ZNSt8weak_ptrI6WidgetEC2EOS1_
FNDA:0,_ZNSt8weak_ptrI6WidgetEC2EOS1_
FN:874,_ZNKSt8weak_ptrI6WidgetE4lockEv
FNDA:6,_ZNKSt8weak_ptrI6WidgetE4lockEv
FN:922,_ZNSt23enable_shared_from_thisI6WidgetEC2Ev
FNDA:8,_ZNSt23enable_shared_from_thisI6WidgetEC2Ev
FN:930,_ZNSt23enable_shared_from_thisI6WidgetED2Ev
FNDA:8,_ZNSt23enable_shared_from_thisI6WidgetED2Ev
FN:934,_ZNSt23enable_shared_from_thisI6WidgetE16shared_from_thisEv
FNDA:6,_ZNSt23enable_shared_from_thisI6WidgetE16shared_from_thisEv
FN:960,_ZNKSt23enable_shared_from_thisI6WidgetE14_M_weak_assignIS0_EEvPT_RKSt14__shared_countILN9__gnu_cxx12_Lock_policyE2EE
FNDA:8,_ZNKSt23enable_shared_from_thisI6WidgetE14_M_weak_assignIS0_EEvPT_RKSt14__shared_countILN9__gnu_cxx12_Lock_policyE2EE
FN:965,_ZSt30__enable_shared_from_this_baseRKSt14__shared_countILN9__gnu_cxx12_Lock_policyE2EEPKSt23enable_shared_from_thisI6WidgetE
FNDA:8,_ZSt30__enable_shared_from_this_baseRKSt14__shared_countILN9__gnu_cxx12_Lock_policyE2EEPKSt23enable_shared_from_thisI6WidgetE
DA:214,8
DA:380,6
DA:381,6
DA:535,6
DA:536,6
DA:555,6
DA:556,6
DA:561,2
DA:562,2
DA:824,8
DA:828,6
DA:829,6
DA:831,16
DA:837,0
DA:874,6
DA:875,6
DA:922,8
DA:930,8
DA:934,6
DA:935,6
DA:960,8
DA:961,8
DA:965,8
DA:967,8
end_of_record
SF:/usr/local/include/c++/13.1.0/bits/unique_ptr.h
FN:93,_ZNKSt14default_deleteINSt7__cxx1118basic_stringstreamIcSt11char_traitsIcESaIcEEEEclEPS5_
FNDA:0,_ZNKSt14default_deleteINSt7__cxx1118basic_stringstreamIcSt11char_traitsIcESaIcEEEEclEPS5_
FN:93,_ZNKSt14default_deleteINSt7__cxx1112basic_stringIcSt11char_traitsIcESaIcEEEEclEPS5_
FNDA:0,_ZNKSt14default_deleteINSt7__cxx1112basic_stringIcSt11char_traitsIcESaIcEEEEclEPS5_
FN:174,_ZNSt15__uniq_ptr_implINSt7__cxx1112basic_stringIcSt11char_traitsIcESaIcEEESt14default_deleteIS5_EEC2Ev
FNDA:2,_ZNSt15__uniq_ptr_implINSt7__cxx1112basic_stringIcSt11char_traitsIcESaIcEEESt14default_deleteIS5_EEC2Ev
FN:197,_ZNSt15__uniq_ptr_implINSt7__cxx1118basic_stringstreamIcSt11char_traitsIcESaIcEEESt14default_deleteIS5_EE6_M_ptrEv
FNDA:0,_ZNSt15__uniq_ptr_implINSt7__cxx1118basic_stringstreamIcSt11char_traitsIcESaIcEEESt14default_deleteIS5_EE6_M_ptrEv
FN:197,_ZNSt15__uniq_ptr_implINSt7__cxx1112basic_stringIcSt11char_traitsIcESaIcEEESt14default_deleteIS5_EE6_M_ptrEv
FNDA:14,_ZNSt15__uniq_ptr_implINSt7__cxx1112basic_stringIcSt11char_traitsIcESaIcEEESt14default_deleteIS5_EE6_M_ptrEv
FN:199,_ZNKSt15__uniq_ptr_implINSt7__cxx1112basic_stringIcSt11char_traitsIcESaIcEEESt14default_deleteIS5_EE6_M_ptrEv
FNDA:0,_ZNKSt15__uniq_ptr_implINSt7__cxx1112basic_stringIcSt11char_traitsIcESaIcEEESt14default_deleteIS5_EE6_M_ptrEv
FN:199,_ZNKSt15__uniq_ptr_implINSt7__cxx1118basic_stringstreamIcSt11char_traitsIcESaIcEEESt14default_deleteIS5_EE6_M_ptrEv
FNDA:0,_ZNKSt15__uniq_ptr_implINSt7__cxx1118basic_stringstreamIcSt11char_traitsIcESaIcEEESt14default_deleteIS5_EE6_M_ptrEv
FN:201,_ZNSt15__uniq_ptr_implINSt7__cxx1118basic_stringstreamIcSt11char_traitsIcESaIcEEESt14default_deleteIS5_EE10_M_deleterEv
FNDA:0,_ZNSt15__uniq_ptr_implINSt7__cxx1118basic_stringstreamIcSt11char_traitsIcESaIcEEESt14default_deleteIS5_EE10_M_deleterEv
FN:201,_ZNSt15__uniq_ptr_implINSt7__cxx1112basic_stringIcSt11char_traitsIcESaIcEEESt14default_deleteIS5_EE10_M_deleterEv
FNDA:0,_ZNSt15__uniq_ptr_implINSt7__cxx1112basic_stringIcSt11char_traitsIcESaIcEEESt14default_deleteIS5_EE10_M_deleterEv
FN:206,_ZNSt15__uniq_ptr_implINSt7__cxx1112basic_stringIcSt11char_traitsIcESaIcEEESt14default_deleteIS5_EE5resetEPS5_
FNDA:0,_ZNSt15__uniq_ptr_implINSt7__cxx1112basic_stringIcSt11char_traitsIcESaIcEEESt14default_deleteIS5_EE5resetEPS5_
FN:304,_ZNSt10unique_ptrINSt7__cxx1112basic_stringIcSt11char_traitsIcESaIcEEESt14default_deleteIS5_EEC2IS7_vEEv
FNDA:2,_ZNSt10unique_ptrINSt7__cxx1112basic_stringIcSt11char_traitsIcESaIcEEESt14default_deleteIS5_EEC2IS7_vEEv
FN:398,_ZNSt10unique_ptrINSt7__cxx1112basic_stringIcSt11char_traitsIcESaIcEEESt14default_deleteIS5_EED2Ev
FNDA:14,_ZNSt10unique_ptrINSt7__cxx1112basic_stringIcSt11char_traitsIcESaIcEEESt14default_deleteIS5_EED2Ev
FN:398,_ZNSt10unique_ptrINSt7__cxx1118basic_stringstreamIcSt11char_traitsIcESaIcEEESt14default_deleteIS5_EED2Ev
FNDA:0,_ZNSt10unique_ptrINSt7__cxx1118basic_stringstreamIcSt11char_traitsIcESaIcEEESt14default_deleteIS5_EED2Ev
FN:451,_ZNKSt10unique_ptrINSt7__cxx1118basic_stringstreamIcSt11char_traitsIcESaIcEEESt14default_deleteIS5_EEdeEv
FNDA:0,_ZNKSt10unique_ptrINSt7__cxx1118basic_stringstreamIcSt11char_traitsIcESaIcEEESt14default_deleteIS5_EEdeEv
FN:460,_ZNKSt10unique_ptrINSt7__cxx1112basic_stringIcSt11char_traitsIcESaIcEEESt14default_deleteIS5_EEptEv
FNDA:0,_ZNKSt10unique_ptrINSt7__cxx1112basic_stringIcSt11char_traitsIcESaIcEEESt14default_deleteIS5_EEptEv
FN:469,_ZNKSt10unique_ptrINSt7__cxx1118basic_stringstreamIcSt11char_traitsIcESaIcEEESt14default_deleteIS5_EE3getEv
FNDA:0,_ZNKSt10unique_ptrINSt7__cxx1118basic_stringstreamIcSt11char_traitsIcESaIcEEESt14default_deleteIS5_EE3getEv
FN:469,_ZNKSt10unique_ptrINSt7__cxx1112basic_stringIcSt11char_traitsIcESaIcEEESt14default_deleteIS5_EE3getEv
FNDA:0,_ZNKSt10unique_ptrINSt7__cxx1112basic_stringIcSt11char_traitsIcESaIcEEESt14default_deleteIS5_EE3getEv
FN:475,_ZNSt10unique_ptrINSt7__cxx1112basic_stringIcSt11char_traitsIcESaIcEEESt14default_deleteIS5_EE11get_deleterEv
FNDA:0,_ZNSt10unique_ptrINSt7__cxx1112basic_stringIcSt11char_traitsIcESaIcEEESt14default_deleteIS5_EE11get_deleterEv
FN:475,_ZNSt10unique_ptrINSt7__cxx1118basic_stringstreamIcSt11char_traitsIcESaIcEEESt14default_deleteIS5_EE11get_deleterEv
FNDA:0,_ZNSt10unique_ptrINSt7__cxx1118basic_stringstreamIcSt11char_traitsIcESaIcEEESt14default_deleteIS5_EE11get_deleterEv
FN:505,_ZNSt10unique_ptrINSt7__cxx1112basic_stringIcSt11char_traitsIcESaIcEEESt14default_deleteIS5_EE5resetEPS5_
FNDA:0,_ZNSt10unique_ptrINSt7__cxx1112basic_stringIcSt11char_traitsIcESaIcEEESt14default_deleteIS5_EE5resetEPS5_
DA:93,0
DA:99,0
DA:100,0
DA:93,0
DA:99,0
DA:100,0
DA:174,2
DA:197,14
DA:197,0
DA:199,0
DA:199,0
DA:201,0
DA:201,0
DA:206,0
DA:208,0
DA:209,0
DA:210,0
DA:211,0
DA:212,0
DA:304,2
DA:305,2
DA:306,2
DA:398,14
DA:402,14
DA:403,14
DA:404,0
DA:405,14
DA:406,14
DA:398,0
DA:402,0
DA:403,0
DA:404,0
DA:405,0
DA:406,0
DA:451,0
DA:453,0
DA:454,0
DA:460,0
DA:463,0
DA:469,0
DA:470,0
DA:469,0
DA:470,0
DA:475,0
DA:476,0
DA:475,0
DA:476,0
DA:505,0
DA:509,0
DA:510,0
end_of_record
SF:/usr/local/include/c++/13.1.0/ext/alloc_traits.h
DA:98,25
end_of_record
SF:/usr/local/include/c++/13.1.0/bits/char_traits.h
FN:136,_ZN9__gnu_cxx11char_traitsIcE2eqERKcS3_
FNDA:0,_ZN9__gnu_cxx11char_traitsIcE2eqERKcS3_
FN:199,_ZN9__gnu_cxx11char_traitsIcE6lengthEPKc
FNDA:0,_ZN9__gnu_cxx11char_traitsIcE6lengthEPKc
FN:263,_ZN9__gnu_cxx11char_traitsIcE4copyEPcPKcm
FNDA:0,_ZN9__gnu_cxx11char_traitsIcE4copyEPcPKcm
FN:361,_ZNSt11char_traitsIcE6assignERcRKc
FNDA:233,_ZNSt11char_traitsIcE6assignERcRKc
FN:403,_ZNSt11char_traitsIcE6lengthEPKc
FNDA:15,_ZNSt11char_traitsIcE6lengthEPKc
FN:437,_ZNSt11char_traitsIcE4copyEPcPKcm
FNDA:342,_ZNSt11char_traitsIcE4copyEPcPKcm
DA:136,0
DA:137,0
DA:199,0
DA:202,0
DA:203,0
DA:204,0
DA:205,0
DA:263,0
DA:266,0
DA:267,0
DA:269,0
DA:271,0
DA:272,0
DA:273,0
DA:276,0
DA:277,0
DA:361,233
DA:364,233
DA:365,0
DA:368,233
DA:369,233
DA:403,15
DA:406,15
DA:407,0
DA:409,15
DA:437,342
DA:439,342
DA:440,0
DA:442,342
DA:443,0
DA:445,342
end_of_record
SF:/usr/local/include/c++/13.1.0/x86_64-pc-linux-gnu/bits/c++config.h
FN:540,_ZSt23__is_constant_evaluatedv
FNDA:1341,_ZSt23__is_constant_evaluatedv
DA:540,1341
DA:544,1341
end_of_record
SF:/usr/include/gtest/internal/gtest-internal.h
FN:435,_ZN7testing8internal9GetTypeIdI10WidgetTestEEPKvv
FNDA:15,_ZN7testing8internal9GetTypeIdI10WidgetTestEEPKvv
FN:454,_ZN7testing8internal15TestFactoryBaseD0Ev
FNDA:0,_ZN7testing8internal15TestFactoryBaseD0Ev
FN:454,_ZN7testing8internal15TestFactoryBaseD2Ev
FNDA:15,_ZN7testing8internal15TestFactoryBaseD2Ev
FN:461,_ZN7testing8internal15TestFactoryBaseC2Ev
FNDA:15,_ZN7testing8internal15TestFactoryBaseC2Ev
FN:472,_ZN7testing8internal15TestFactoryImplI28WidgetTest_CreateWidget_TestE10CreateTestEv
FNDA:2,_ZN7testing8internal15TestFactoryImplI28WidgetTest_CreateWidget_TestE10CreateTestEv
FN:472,_ZN7testing8internal15TestFactoryImplI30WidgetTest_SharedFromThis_TestE10CreateTestEv
FNDA:2,_ZN7testing8internal15TestFactoryImplI30WidgetTest_SharedFromThis_TestE10CreateTestEv
FN:472,_ZN7testing8internal15TestFactoryImplI41WidgetTest_MultipleWidgetsProcessing_TestE10CreateTestEv
FNDA:2,_ZN7testing8internal15TestFactoryImplI41WidgetTest_MultipleWidgetsProcessing_TestE10CreateTestEv
FN:493,_ZN7testing8internal12CodeLocationC2ERKNSt7__cxx1112basic_stringIcSt11char_traitsIcESaIcEEEi
FNDA:15,_ZN7testing8internal12CodeLocationC2ERKNSt7__cxx1112basic_stringIcSt11char_traitsIcESaIcEEEi
FN:506,_ZN7testing8internal19GetNotDefaultOrNullEPFvvES2_
FNDA:60,_ZN7testing8internal19GetNotDefaultOrNullEPFvvES2_
FN:521,_ZN7testing8internal16SuiteApiResolverI10WidgetTestE19GetSetUpCaseOrSuiteEPKci
FNDA:15,_ZN7testing8internal16SuiteApiResolverI10WidgetTestE19GetSetUpCaseOrSuiteEPKci
FN:542,_ZN7testing8internal16SuiteApiResolverI10WidgetTestE22GetTearDownCaseOrSuiteEPKci
FNDA:15,_ZN7testing8internal16SuiteApiResolverI10WidgetTestE22GetTearDownCaseOrSuiteEPKci
DA:435,15
DA:440,15
DA:454,0
DA:454,15
DA:461,15
DA:472,2
DA:472,2
DA:472,2
DA:493,15
DA:494,15
DA:506,60
DA:508,60
DA:521,15
DA:525,15
DA:527,15
DA:529,15
DA:532,0
DA:534,15
DA:542,15
DA:546,15
DA:548,15
DA:550,15
DA:553,0
DA:555,15
end_of_record
SF:/usr/local/include/c++/13.1.0/bits/move.h
FN:49,_ZSt11__addressofIK6WidgetEPT_RS2_
FNDA:0,_ZSt11__addressofIK6WidgetEPT_RS2_
FN:49,_ZSt11__addressofISt8weak_ptrI6WidgetEEPT_RS3_
FNDA:26,_ZSt11__addressofISt8weak_ptrI6WidgetEEPT_RS3_
FN:49,_ZSt11__addressofIKcEPT_RS1_
FNDA:630,_ZSt11__addressofIKcEPT_RS1_
FN:49,_ZSt11__addressofIcEPT_RS0_
FNDA:30,_ZSt11__addressofIcEPT_RS0_
FN:77,_ZSt7forwardIRKcEOT_RNSt16remove_referenceIS2_E4typeE
FNDA:0,_ZSt7forwardIRKcEOT_RNSt16remove_referenceIS2_E4typeE
FN:77,_ZSt7forwardISt10shared_ptrI6WidgetEEOT_RNSt16remove_referenceIS3_E4typeE
FNDA:24,_ZSt7forwardISt10shared_ptrI6WidgetEEOT_RNSt16remove_referenceIS3_E4typeE
FN:77,_ZSt7forwardIRiEOT_RNSt16remove_referenceIS1_E4typeE
FNDA:16,_ZSt7forwardIRiEOT_RNSt16remove_referenceIS1_E4typeE
FN:77,_ZSt7forwardIRKSt8weak_ptrI6WidgetEEOT_RNSt16remove_referenceIS5_E4typeE
FNDA:10,_ZSt7forwardIRKSt8weak_ptrI6WidgetEEOT_RNSt16remove_referenceIS5_E4typeE
FN:77,_ZSt7forwardISt8weak_ptrI6WidgetEEOT_RNSt16remove_referenceIS3_E4typeE
FNDA:0,_ZSt7forwardISt8weak_ptrI6WidgetEEOT_RNSt16remove_referenceIS3_E4typeE
FN:104,_ZSt4moveIRSt8weak_ptrI6WidgetEEONSt16remove_referenceIT_E4typeEOS5_
FNDA:0,_ZSt4moveIRSt8weak_ptrI6WidgetEEONSt16remove_referenceIT_E4typeEOS5_
FN:104,_ZSt4moveIRSt12__weak_countILN9__gnu_cxx12_Lock_policyE2EEEONSt16remove_referenceIT_E4typeEOS6_
FNDA:0,_ZSt4moveIRSt12__weak_countILN9__gnu_cxx12_Lock_policyE2EEEONSt16remove_referenceIT_E4typeEOS6_
FN:104,_ZSt4moveIRPNSt7__cxx1112basic_stringIcSt11char_traitsIcESaIcEEEEONSt16remove_referenceIT_E4typeEOS9_
FNDA:0,_ZSt4moveIRPNSt7__cxx1112basic_stringIcSt11char_traitsIcESaIcEEEEONSt16remove_referenceIT_E4typeEOS9_
FN:104,_ZSt4moveIRPNSt7__cxx1118basic_stringstreamIcSt11char_traitsIcESaIcEEEEONSt16remove_referenceIT_E4typeEOS9_
FNDA:0,_ZSt4moveIRPNSt7__cxx1118basic_stringstreamIcSt11char_traitsIcESaIcEEEEONSt16remove_referenceIT_E4typeEOS9_
FN:104,_ZSt4moveIRSaIcEEONSt16remove_referenceIT_E4typeEOS3_
FNDA:15,_ZSt4moveIRSaIcEEONSt16remove_referenceIT_E4typeEOS3_
FN:145,_ZSt9addressofIKcEPT_RS1_
FNDA:630,_ZSt9addressofIKcEPT_RS1_
FN:145,_ZSt9addressofIcEPT_RS0_
FNDA:30,_ZSt9addressofIcEPT_RS0_
FN:145,_ZSt9addressofIK6WidgetEPT_RS2_
FNDA:0,_ZSt9addressofIK6WidgetEPT_RS2_
DA:49,0
DA:50,0
DA:49,630
DA:50,630
DA:49,30
DA:50,30
DA:49,26
DA:50,26
DA:77,0
DA:78,0
DA:77,10
DA:78,10
DA:77,16
DA:78,16
DA:77,24
DA:78,24
DA:77,0
DA:78,0
DA:104,0
DA:105,0
DA:104,0
DA:105,0
DA:104,0
DA:105,0
DA:104,0
DA:105,0
DA:104,15
DA:105,15
DA:145,0
DA:146,0
DA:145,630
DA:146,630
DA:145,30
DA:146,30
end_of_record
SF:/usr/local/include/c++/13.1.0/bits/basic_string.tcc
FN:134,_ZNSt7__cxx1112basic_stringIcSt11char_traitsIcESaIcEE9_M_createERmm
FNDA:658,_ZNSt7__cxx1112basic_stringIcSt11char_traitsIcESaIcEE9_M_createERmm
FN:217,_ZNSt7__cxx1112basic_stringIcSt11char_traitsIcESaIcEE12_M_constructIPcEEvT_S7_St20forward_iterator_tag
FNDA:15,_ZNSt7__cxx1112basic_stringIcSt11char_traitsIcESaIcEE12_M_constructIPcEEvT_S7_St20forward_iterator_tag
FN:217,_ZNSt7__cxx1112basic_stringIcSt11char_traitsIcESaIcEE12_M_constructIPKcEEvT_S8_St20forward_iterator_tag
FNDA:15,_ZNSt7__cxx1112basic_stringIcSt11char_traitsIcESaIcEE12_M_constructIPKcEEvT_S8_St20forward_iterator_tag
FN:235,_ZZNSt7__cxx1112basic_stringIcSt11char_traitsIcESaIcEE12_M_constructIPcEEvT_S7_St20forward_iterator_tagEN6_GuardC2EPS4_
FNDA:15,_ZZNSt7__cxx1112basic_stringIcSt11char_traitsIcESaIcEE12_M_constructIPcEEvT_S7_St20forward_iterator_tagEN6_GuardC2EPS4_
FN:235,_ZZNSt7__cxx1112basic_stringIcSt11char_traitsIcESaIcEE12_M_constructIPKcEEvT_S8_St20forward_iterator_tagEN6_GuardC2EPS4_
FNDA:15,_ZZNSt7__cxx1112basic_stringIcSt11char_traitsIcESaIcEE12_M_constructIPKcEEvT_S8_St20forward_iterator_tagEN6_GuardC2EPS4_
FN:238,_ZZNSt7__cxx1112basic_stringIcSt11char_traitsIcESaIcEE12_M_constructIPcEEvT_S7_St20forward_iterator_tagEN6_GuardD2Ev
FNDA:15,_ZZNSt7__cxx1112basic_stringIcSt11char_traitsIcESaIcEE12_M_constructIPcEEvT_S7_St20forward_iterator_tagEN6_GuardD2Ev
FN:238,_ZZNSt7__cxx1112basic_stringIcSt11char_traitsIcESaIcEE12_M_constructIPKcEEvT_S8_St20forward_iterator_tagEN6_GuardD2Ev
FNDA:15,_ZZNSt7__cxx1112basic_stringIcSt11char_traitsIcESaIcEE12_M_constructIPKcEEvT_S8_St20forward_iterator_tagEN6_GuardD2Ev
FN:321,_ZNSt7__cxx1112basic_stringIcSt11char_traitsIcESaIcEE9_M_mutateEmmPKcm
FNDA:195,_ZNSt7__cxx1112basic_stringIcSt11char_traitsIcESaIcEE9_M_mutateEmmPKcm
FN:409,_ZNSt7__cxx1112basic_stringIcSt11char_traitsIcESaIcEE9_M_appendEPKcm
FNDA:160,_ZNSt7__cxx1112basic_stringIcSt11char_traitsIcESaIcEE9_M_appendEPKcm
DA:134,658
DA:139,658
DA:140,0
DA:145,658
DA:147,223
DA:149,223
DA:150,0
DA:155,1316
DA:217,15
DA:221,15
DA:223,15
DA:225,15
DA:226,15
DA:241,15
DA:243,15
DA:245,15
DA:247,15
DA:248,15
DA:217,15
DA:221,15
DA:223,15
DA:225,15
DA:226,15
DA:241,15
DA:243,15
DA:245,15
DA:247,15
DA:248,15
DA:235,15
DA:235,15
DA:238,15
DA:238,15
DA:321,195
DA:325,195
DA:327,195
DA:328,195
DA:330,195
DA:331,44
DA:332,195
DA:333,195
DA:334,195
DA:335,0
DA:336,0
DA:338,195
DA:339,195
DA:340,195
DA:341,195
DA:409,160
DA:412,160
DA:414,160
DA:416,116
DA:417,116
DA:420,44
DA:422,160
DA:423,160
end_of_record
SF:/usr/local/include/c++/13.1.0/bits/allocator.h
DA:163,8
DA:168,65
DA:184,25
DA:191,674
DA:193,0
DA:194,0
DA:195,0
DA:198,674
DA:205,49
DA:207,0
DA:208,0
DA:210,49
end_of_record
SF:/usr/include/gtest/gtest-printers.h
FN:212,_ZN7testing8internal52internal_stream_operator_without_lexical_name_lookup13StreamPrinter10PrintValueIivRSoEEvRKT_PSo
FNDA:0,_ZN7testing8internal52internal_stream_operator_without_lexical_name_lookup13StreamPrinter10PrintValueIivRSoEEvRKT_PSo
FN:212,_ZN7testing8internal52internal_stream_operator_without_lexical_name_lookup13StreamPrinter10PrintValueImvRSoEEvRKT_PSo
FNDA:0,_ZN7testing8internal52internal_stream_operator_without_lexical_name_lookup13StreamPrinter10PrintValueImvRSoEEvRKT_PSo
FN:269,_ZN7testing8internal15RawBytesPrinter10PrintValueI6WidgetLm48EEEvRKT_PSo
FNDA:0,_ZN7testing8internal15RawBytesPrinter10PrintValueI6WidgetLm48EEEvRKT_PSo
FN:306,_ZN7testing8internal17PrintWithFallbackI6WidgetEEvRKT_PSo
FNDA:0,_ZN7testing8internal17PrintWithFallbackI6WidgetEEvRKT_PSo
FN:306,_ZN7testing8internal17PrintWithFallbackIiEEvRKT_PSo
FNDA:0,_ZN7testing8internal17PrintWithFallbackIiEEvRKT_PSo
FN:306,_ZN7testing8internal17PrintWithFallbackImEEvRKT_PSo
FNDA:0,_ZN7testing8internal17PrintWithFallbackImEEvRKT_PSo
FN:333,_ZN7testing8internal19FormatForComparisonIimE6FormatB5cxx11ERKi
FNDA:0,_ZN7testing8internal19FormatForComparisonIimE6FormatB5cxx11ERKi
FN:333,_ZN7testing8internal19FormatForComparisonImiE6FormatB5cxx11ERKm
FNDA:0,_ZN7testing8internal19FormatForComparisonImiE6FormatB5cxx11ERKm
FN:333,_ZN7testing8internal19FormatForComparisonISt10shared_ptrI6WidgetES4_E6FormatB5cxx11ERKS4_
FNDA:0,_ZN7testing8internal19FormatForComparisonISt10shared_ptrI6WidgetES4_E6FormatB5cxx11ERKS4_
FN:333,_ZN7testing8internal19FormatForComparisonIDnSt10shared_ptrI6WidgetEE6FormatB5cxx11ERKDn
FNDA:0,_ZN7testing8internal19FormatForComparisonIDnSt10shared_ptrI6WidgetEE6FormatB5cxx11ERKDn
FN:333,_ZN7testing8internal19FormatForComparisonISt10shared_ptrI6WidgetEDnE6FormatB5cxx11ERKS4_
FNDA:0,_ZN7testing8internal19FormatForComparisonISt10shared_ptrI6WidgetEDnE6FormatB5cxx11ERKS4_
FN:413,_ZN7testing8internal33FormatForComparisonFailureMessageIDnSt10shared_ptrI6WidgetEEENSt7__cxx1112basic_stringIcSt11char_traitsIcESaIcEEERKT_RKT0_
FNDA:0,_ZN7testing8internal33FormatForComparisonFailureMessageIDnSt10shared_ptrI6WidgetEEENSt7__cxx1112basic_stringIcSt11char_traitsIcESaIcEEERKT_RKT0_
FN:413,_ZN7testing8internal33FormatForComparisonFailureMessageISt10shared_ptrI6WidgetEDnEENSt7__cxx1112basic_stringIcSt11char_traitsIcESaIcEEERKT_RKT0_
FNDA:0,_ZN7testing8internal33FormatForComparisonFailureMessageISt10shared_ptrI6WidgetEDnEENSt7__cxx1112basic_stringIcSt11char_traitsIcESaIcEEERKT_RKT0_
FN:413,_ZN7testing8internal33FormatForComparisonFailureMessageISt10shared_ptrI6WidgetES4_EENSt7__cxx1112basic_stringIcSt11char_traitsIcESaIcEEERKT_RKT0_
FNDA:0,_ZN7testing8internal33FormatForComparisonFailureMessageISt10shared_ptrI6WidgetES4_EENSt7__cxx1112basic_stringIcSt11char_traitsIcESaIcEEERKT_RKT0_
FN:413,_ZN7testing8internal33FormatForComparisonFailureMessageImiEENSt7__cxx1112basic_stringIcSt11char_traitsIcESaIcEEERKT_RKT0_
FNDA:0,_ZN7testing8internal33FormatForComparisonFailureMessageImiEENSt7__cxx1112basic_stringIcSt11char_traitsIcESaIcEEERKT_RKT0_
FN:413,_ZN7testing8internal33FormatForComparisonFailureMessageIimEENSt7__cxx1112basic_stringIcSt11char_traitsIcESaIcEEERKT_RKT0_
FNDA:0,_ZN7testing8internal33FormatForComparisonFailureMessageIimEENSt7__cxx1112basic_stringIcSt11char_traitsIcESaIcEEERKT_RKT0_
FN:440,_ZN7testing8internal7PrintToImEEvRKT_PSo
FNDA:0,_ZN7testing8internal7PrintToImEEvRKT_PSo
FN:440,_ZN7testing8internal7PrintToIiEEvRKT_PSo
FNDA:0,_ZN7testing8internal7PrintToIiEEvRKT_PSo
FN:440,_ZN7testing8internal7PrintToI6WidgetEEvRKT_PSo
FNDA:0,_ZN7testing8internal7PrintToI6WidgetEEvRKT_PSo
FN:588,_ZN7testing8internal7PrintToEDnPSo
FNDA:0,_ZN7testing8internal7PrintToEDnPSo
FN:595,_ZN7testing8internal14VoidifyPointerEPKv
FNDA:0,_ZN7testing8internal14VoidifyPointerEPKv
FN:612,_ZN7testing8internal17PrintSmartPointerI6WidgetSt10shared_ptrIS2_EvEEvRKT0_PSoi
FNDA:0,_ZN7testing8internal17PrintSmartPointerI6WidgetSt10shared_ptrIS2_EvEEvRKT0_PSoi
FN:628,_ZN7testing8internal7PrintToI6WidgetEEvRKSt10shared_ptrIT_EPSo
FNDA:0,_ZN7testing8internal7PrintToI6WidgetEEvRKSt10shared_ptrIT_EPSo
FN:682,_ZN7testing8internal16UniversalPrinterI6WidgetE5PrintERKS2_PSo
FNDA:0,_ZN7testing8internal16UniversalPrinterI6WidgetE5PrintERKS2_PSo
FN:682,_ZN7testing8internal16UniversalPrinterISt10shared_ptrI6WidgetEE5PrintERKS4_PSo
FNDA:0,_ZN7testing8internal16UniversalPrinterISt10shared_ptrI6WidgetEE5PrintERKS4_PSo
FN:682,_ZN7testing8internal16UniversalPrinterIiE5PrintERKiPSo
FNDA:0,_ZN7testing8internal16UniversalPrinterIiE5PrintERKiPSo
FN:682,_ZN7testing8internal16UniversalPrinterImE5PrintERKmPSo
FNDA:0,_ZN7testing8internal16UniversalPrinterImE5PrintERKmPSo
FN:682,_ZN7testing8internal16UniversalPrinterIDnE5PrintERKDnPSo
FNDA:0,_ZN7testing8internal16UniversalPrinterIDnE5PrintERKDnPSo
FN:864,_ZN7testing8internal21UniversalTersePrinterIDnE5PrintERKDnPSo
FNDA:0,_ZN7testing8internal21UniversalTersePrinterIDnE5PrintERKDnPSo
FN:864,_ZN7testing8internal21UniversalTersePrinterISt10shared_ptrI6WidgetEE5PrintERKS4_PSo
FNDA:0,_ZN7testing8internal21UniversalTersePrinterISt10shared_ptrI6WidgetEE5PrintERKS4_PSo
FN:864,_ZN7testing8internal21UniversalTersePrinterImE5PrintERKmPSo
FNDA:0,_ZN7testing8internal21UniversalTersePrinterImE5PrintERKmPSo
FN:864,_ZN7testing8internal21UniversalTersePrinterIiE5PrintERKiPSo
FNDA:0,_ZN7testing8internal21UniversalTersePrinterIiE5PrintERKiPSo
FN:976,_ZN7testing8internal14UniversalPrintISt10shared_ptrI6WidgetEEEvRKT_PSo
FNDA:0,_ZN7testing8internal14UniversalPrintISt10shared_ptrI6WidgetEEEvRKT_PSo
FN:976,_ZN7testing8internal14UniversalPrintIiEEvRKT_PSo
FNDA:0,_ZN7testing8internal14UniversalPrintIiEEvRKT_PSo
FN:976,_ZN7testing8internal14UniversalPrintImEEvRKT_PSo
FNDA:0,_ZN7testing8internal14UniversalPrintImEEvRKT_PSo
FN:976,_ZN7testing8internal14UniversalPrintIDnEEvRKT_PSo
FNDA:0,_ZN7testing8internal14UniversalPrintIDnEEvRKT_PSo
FN:1016,_ZN7testing13PrintToStringISt10shared_ptrI6WidgetEEENSt7__cxx1112basic_stringIcSt11char_traitsIcESaIcEEERKT_
FNDA:0,_ZN7testing13PrintToStringISt10shared_ptrI6WidgetEEENSt7__cxx1112basic_stringIcSt11char_traitsIcESaIcEEERKT_
FN:1016,_ZN7testing13PrintToStringIDnEENSt7__cxx1112basic_stringIcSt11char_traitsIcESaIcEEERKT_
FNDA:0,_ZN7testing13PrintToStringIDnEENSt7__cxx1112basic_stringIcSt11char_traitsIcESaIcEEERKT_
FN:1016,_ZN7testing13PrintToStringImEENSt7__cxx1112basic_stringIcSt11char_traitsIcESaIcEEERKT_
FNDA:0,_ZN7testing13PrintToStringImEENSt7__cxx1112basic_stringIcSt11char_traitsIcESaIcEEERKT_
FN:1016,_ZN7testing13PrintToStringIiEENSt7__cxx1112basic_stringIcSt11char_traitsIcESaIcEEERKT_
FNDA:0,_ZN7testing13PrintToStringIiEENSt7__cxx1112basic_stringIcSt11char_traitsIcESaIcEEERKT_
DA:212,0
DA:215,0
DA:216,0
DA:212,0
DA:215,0
DA:216,0
DA:269,0
DA:270,0
DA:273,0
DA:275,0
DA:306,0
DA:312,0
DA:313,0
DA:306,0
DA:312,0
DA:313,0
DA:306,0
DA:312,0
DA:313,0
DA:333,0
DA:334,0
DA:333,0
DA:334,0
DA:333,0
DA:334,0
DA:333,0
DA:334,0
DA:333,0
DA:334,0
DA:413,0
DA:415,0
DA:413,0
DA:415,0
DA:413,0
DA:415,0
DA:413,0
DA:415,0
DA:413,0
DA:415,0
DA:440,0
DA:441,0
DA:442,0
DA:440,0
DA:441,0
DA:442,0
DA:440,0
DA:441,0
DA:442,0
DA:588,0
DA:595,0
DA:612,0
DA:613,0
DA:614,0
DA:616,0
DA:617,0
DA:618,0
DA:620,0
DA:628,0
DA:629,0
DA:630,0
DA:682,0
DA:691,0
DA:692,0
DA:682,0
DA:691,0
DA:692,0
DA:682,0
DA:691,0
DA:692,0
DA:682,0
DA:691,0
DA:692,0
DA:682,0
DA:691,0
DA:692,0
DA:864,0
DA:865,0
DA:866,0
DA:864,0
DA:865,0
DA:866,0
DA:864,0
DA:865,0
DA:866,0
DA:864,0
DA:865,0
DA:866,0
DA:976,0
DA:980,0
DA:981,0
DA:976,0
DA:980,0
DA:981,0
DA:976,0
DA:980,0
DA:981,0
DA:976,0
DA:980,0
DA:981,0
DA:1016,0
DA:1017,0
DA:1018,0
DA:1019,0
DA:1020,0
DA:1016,0
DA:1017,0
DA:1018,0
DA:1019,0
DA:1020,0
DA:1016,0
DA:1017,0
DA:1018,0
DA:1019,0
DA:1020,0
DA:1016,0
DA:1017,0
DA:1018,0
DA:1019,0
DA:1020,0
end_of_record
SF:/usr/local/include/c++/13.1.0/type_traits
FN:3644,_ZSt21is_constant_evaluatedv
FNDA:10,_ZSt21is_constant_evaluatedv
DA:3644,10
DA:3647,10
end_of_record
SF:/usr/local/include/c++/13.1.0/bits/new_allocator.h
FN:122,_ZNSt15__new_allocatorISt8weak_ptrI6WidgetEE8allocateEmPKv
FNDA:16,_ZNSt15__new_allocatorISt8weak_ptrI6WidgetEE8allocateEmPKv
FN:122,_ZNSt15__new_allocatorIcE8allocateEmPKv
FNDA:658,_ZNSt15__new_allocatorIcE8allocateEmPKv
FN:152,_ZNSt15__new_allocatorIcE10deallocateEPcm
FNDA:33,_ZNSt15__new_allocatorIcE10deallocateEPcm
FN:152,_ZNSt15__new_allocatorISt8weak_ptrI6WidgetEE10deallocateEPS2_m
FNDA:16,_ZNSt15__new_allocatorISt8weak_ptrI6WidgetEE10deallocateEPS2_m
DA:88,8
DA:92,65
DA:122,16
DA:130,16
DA:134,0
DA:135,0
DA:136,0
DA:147,16
DA:122,658
DA:130,658
DA:136,0
DA:147,658
DA:152,33
DA:168,33
DA:152,16
DA:168,16
DA:229,674
end_of_record
SF:/usr/include/gtest/gtest.h
FN:305,_ZN7testing15AssertionResultC2IbEERKT_PNSt9enable_ifIXntsrSt14is_convertibleIS2_S0_E5valueEvE4typeE
FNDA:2,_ZN7testing15AssertionResultC2IbEERKT_PNSt9enable_ifIXntsrSt14is_convertibleIS2_S0_E5valueEvE4typeE
FN:324,_ZNK7testing15AssertionResultcvbEv
FNDA:14,_ZNK7testing15AssertionResultcvbEv
FN:333,_ZNK7testing15AssertionResult7messageEv
FNDA:0,_ZNK7testing15AssertionResult7messageEv
FN:337,_ZNK7testing15AssertionResult15failure_messageEv
FNDA:0,_ZNK7testing15AssertionResult15failure_messageEv
FN:340,_ZN7testing15AssertionResultlsIA5_cEERS0_RKT_
FNDA:0,_ZN7testing15AssertionResultlsIA5_cEERS0_RKT_
FN:340,_ZN7testing15AssertionResultlsINSt7__cxx1112basic_stringIcSt11char_traitsIcESaIcEEEEERS0_RKT_
FNDA:0,_ZN7testing15AssertionResultlsINSt7__cxx1112basic_stringIcSt11char_traitsIcESaIcEEEEERS0_RKT_
FN:340,_ZN7testing15AssertionResultlsIA3_cEERS0_RKT_
FNDA:0,_ZN7testing15AssertionResultlsIA3_cEERS0_RKT_
FN:340,_ZN7testing15AssertionResultlsIPKcEERS0_RKT_
FNDA:0,_ZN7testing15AssertionResultlsIPKcEERS0_RKT_
FN:340,_ZN7testing15AssertionResultlsIA12_cEERS0_RKT_
FNDA:0,_ZN7testing15AssertionResultlsIA12_cEERS0_RKT_
FN:355,_ZN7testing15AssertionResult13AppendMessageERKNS_7MessageE
FNDA:0,_ZN7testing15AssertionResult13AppendMessageERKNS_7MessageE
FN:427,_ZN7testing4Test14SetUpTestSuiteEv
FNDA:0,_ZN7testing4Test14SetUpTestSuiteEv
FN:435,_ZN7testing4Test17TearDownTestSuiteEv
FNDA:0,_ZN7testing4Test17TearDownTestSuiteEv
FN:440,_ZN7testing4Test16TearDownTestCaseEv
FNDA:0,_ZN7testing4Test16TearDownTestCaseEv
FN:441,_ZN7testing4Test13SetUpTestCaseEv
FNDA:0,_ZN7testing4Test13SetUpTestCaseEv
FN:522,_ZN7testing4Test5SetupEv
FNDA:0,_ZN7testing4Test5SetupEv
FN:1522,_ZN7testing8internal18CmpHelperEQFailureISt10shared_ptrI6WidgetES4_EENS_15AssertionResultEPKcS7_RKT_RKT0_
FNDA:0,_ZN7testing8internal18CmpHelperEQFailureISt10shared_ptrI6WidgetES4_EENS_15AssertionResultEPKcS7_RKT_RKT0_
FN:1522,_ZN7testing8internal18CmpHelperEQFailureImiEENS_15AssertionResultEPKcS4_RKT_RKT0_
FNDA:0,_ZN7testing8internal18CmpHelperEQFailureImiEENS_15AssertionResultEPKcS4_RKT_RKT0_
FN:1541,_ZN7testing8internal11CmpHelperEQISt10shared_ptrI6WidgetES4_EENS_15AssertionResultEPKcS7_RKT_RKT0_
FNDA:6,_ZN7testing8internal11CmpHelperEQISt10shared_ptrI6WidgetES4_EENS_15AssertionResultEPKcS7_RKT_RKT0_
FN:1541,_ZN7testing8internal11CmpHelperEQImiEENS_15AssertionResultEPKcS4_RKT_RKT0_
FNDA:4,_ZN7testing8internal11CmpHelperEQImiEENS_15AssertionResultEPKcS4_RKT_RKT0_
FN:1561,_ZN7testing8internal8EqHelper7CompareISt10shared_ptrI6WidgetES5_LPv0EEENS_15AssertionResultEPKcS9_RKT_RKT0_
FNDA:6,_ZN7testing8internal8EqHelper7CompareISt10shared_ptrI6WidgetES5_LPv0EEENS_15AssertionResultEPKcS9_RKT_RKT0_
FN:1561,_ZN7testing8internal8EqHelper7CompareImiLPv0EEENS_15AssertionResultEPKcS6_RKT_RKT0_
FNDA:4,_ZN7testing8internal8EqHelper7CompareImiLPv0EEENS_15AssertionResultEPKcS6_RKT_RKT0_
FN:1595,_ZN7testing8internal18CmpHelperOpFailureISt10shared_ptrI6WidgetEDnEENS_15AssertionResultEPKcS7_RKT_RKT0_S7_
FNDA:0,_ZN7testing8internal18CmpHelperOpFailureISt10shared_ptrI6WidgetEDnEENS_15AssertionResultEPKcS7_RKT_RKT0_S7_
FN:1624,_ZN7testing8internal11CmpHelperNEISt10shared_ptrI6WidgetEDnEENS_15AssertionResultEPKcS7_RKT_RKT0_
FNDA:2,_ZN7testing8internal11CmpHelperNEISt10shared_ptrI6WidgetEDnEENS_15AssertionResultEPKcS7_RKT_RKT0_
DA:305,2
DA:311,2
DA:324,14
DA:333,0
DA:334,0
DA:337,0
DA:340,0
DA:341,0
DA:342,0
DA:340,0
DA:341,0
DA:342,0
DA:340,0
DA:341,0
DA:342,0
DA:340,0
DA:341,0
DA:342,0
DA:340,0
DA:341,0
DA:342,0
DA:355,0
DA:356,0
DA:357,0
DA:358,0
DA:427,0
DA:435,0
DA:440,0
DA:441,0
DA:522,0
DA:1522,0
DA:1529,0
DA:1522,0
DA:1529,0
DA:1541,4
DA:1545,4
DA:1546,4
DA:1549,0
DA:1541,6
DA:1545,6
DA:1546,6
DA:1549,0
DA:1561,4
DA:1564,4
DA:1561,6
DA:1564,6
DA:1595,0
DA:1599,0
DA:1600,0
DA:1601,0
DA:1624,2
end_of_record
SF:/usr/local/include/c++/13.1.0/bits/stl_iterator_base_types.h
DA:240,30
end_of_record
SF:/usr/local/include/c++/13.1.0/bits/stl_iterator_base_funcs.h
DA:106,30
DA:151,60
DA:152,60
end_of_record
SF:/home/muzi/Documents/exer_repo_cpp/mordern_cpp/smart_pointer/shared_ptr/test_main_shared_ptr.cpp
FN:12,_ZN10WidgetTest12createWidgetEii
FNDA:8,_ZN10WidgetTest12createWidgetEii
FN:18,_ZN28WidgetTest_CreateWidget_TestC2Ev
FNDA:2,_ZN28WidgetTest_CreateWidget_TestC2Ev
FN:18,_ZN28WidgetTest_CreateWidget_TestD0Ev
FNDA:2,_ZN28WidgetTest_CreateWidget_TestD0Ev
FN:18,_ZN28WidgetTest_CreateWidget_TestD2Ev
FNDA:2,_ZN28WidgetTest_CreateWidget_TestD2Ev
FN:18,_ZN28WidgetTest_CreateWidget_Test8TestBodyEv
FNDA:2,_ZN28WidgetTest_CreateWidget_Test8TestBodyEv
FN:24,_ZN30WidgetTest_SharedFromThis_TestC2Ev
FNDA:2,_ZN30WidgetTest_SharedFromThis_TestC2Ev
FN:24,_ZN30WidgetTest_SharedFromThis_TestD0Ev
FNDA:2,_ZN30WidgetTest_SharedFromThis_TestD0Ev
FN:24,_ZN30WidgetTest_SharedFromThis_TestD2Ev
FNDA:2,_ZN30WidgetTest_SharedFromThis_TestD2Ev
FN:24,_ZN30WidgetTest_SharedFromThis_Test8TestBodyEv
FNDA:2,_ZN30WidgetTest_SharedFromThis_Test8TestBodyEv
FN:36,_ZN41WidgetTest_MultipleWidgetsProcessing_TestC2Ev
FNDA:2,_ZN41WidgetTest_MultipleWidgetsProcessing_TestC2Ev
FN:36,_ZN41WidgetTest_MultipleWidgetsProcessing_TestD0Ev
FNDA:2,_ZN41WidgetTest_MultipleWidgetsProcessing_TestD0Ev
FN:36,_ZN41WidgetTest_MultipleWidgetsProcessing_TestD2Ev
FNDA:2,_ZN41WidgetTest_MultipleWidgetsProcessing_TestD2Ev
FN:36,_ZN41WidgetTest_MultipleWidgetsProcessing_Test8TestBodyEv
FNDA:2,_ZN41WidgetTest_MultipleWidgetsProcessing_Test8TestBodyEv
DA:12,8
DA:13,8
DA:18,2
DA:18,2
DA:18,2
DA:18,2
DA:19,2
DA:20,2
DA:21,2
DA:24,2
DA:24,2
DA:24,2
DA:24,2
DA:25,2
DA:26,2
DA:29,2
DA:30,2
DA:31,2
DA:32,2
DA:33,2
DA:36,2
DA:36,2
DA:36,2
DA:36,2
DA:37,2
DA:38,2
DA:40,2
DA:41,2
DA:44,2
DA:45,2
DA:47,2
DA:48,2
DA:50,2
DA:51,2
DA:52,2
end_of_record
SF:/usr/include/gtest/gtest-message.h
FN:113,_ZN7testing7MessagelsIA5_cEERS0_RKT_
FNDA:0,_ZN7testing7MessagelsIA5_cEERS0_RKT_
FN:113,_ZN7testing7MessagelsINSt7__cxx1112basic_stringIcSt11char_traitsIcESaIcEEEEERS0_RKT_
FNDA:0,_ZN7testing7MessagelsINSt7__cxx1112basic_stringIcSt11char_traitsIcESaIcEEEEERS0_RKT_
FN:113,_ZN7testing7MessagelsIA3_cEERS0_RKT_
FNDA:0,_ZN7testing7MessagelsIA3_cEERS0_RKT_
FN:113,_ZN7testing7MessagelsIA12_cEERS0_RKT_
FNDA:0,_ZN7testing7MessagelsIA12_cEERS0_RKT_
FN:113,_ZN7testing7MessagelsIA49_cEERS0_RKT_
FNDA:0,_ZN7testing7MessagelsIA49_cEERS0_RKT_
FN:113,_ZN7testing7MessagelsIA32_cEERS0_RKT_
FNDA:0,_ZN7testing7MessagelsIA32_cEERS0_RKT_
FN:113,_ZN7testing7MessagelsIA39_cEERS0_RKT_
FNDA:0,_ZN7testing7MessagelsIA39_cEERS0_RKT_
FN:147,_ZN7testing7MessagelsIKcEERS0_RKPT_
FNDA:0,_ZN7testing7MessagelsIKcEERS0_RKPT_
DA:113,0
DA:129,0
DA:130,0
DA:113,0
DA:129,0
DA:130,0
DA:113,0
DA:129,0
DA:130,0
DA:113,0
DA:129,0
DA:130,0
DA:113,0
DA:129,0
DA:130,0
DA:113,0
DA:129,0
DA:130,0
DA:113,0
DA:129,0
DA:130,0
DA:147,0
DA:148,0
DA:149,0
DA:151,0
DA:153,0
end_of_record
SF:/usr/local/include/c++/13.1.0/bits/stl_uninitialized.h
FN:113,_ZSt16__do_uninit_copyIN9__gnu_cxx17__normal_iteratorIPKSt8weak_ptrI6WidgetESt6vectorIS4_SaIS4_EEEEPS4_ET0_T_SD_SC_
FNDA:10,_ZSt16__do_uninit_copyIN9__gnu_cxx17__normal_iteratorIPKSt8weak_ptrI6WidgetESt6vectorIS4_SaIS4_EEEEPS4_ET0_T_SD_SC_
FN:135,_ZNSt20__uninitialized_copyILb0EE13__uninit_copyIN9__gnu_cxx17__normal_iteratorIPKSt8weak_ptrI6WidgetESt6vectorIS6_SaIS6_EEEEPS6_EET0_T_SF_SE_
FNDA:10,_ZNSt20__uninitialized_copyILb0EE13__uninit_copyIN9__gnu_cxx17__normal_iteratorIPKSt8weak_ptrI6WidgetESt6vectorIS6_SaIS6_EEEEPS6_EET0_T_SF_SE_
FN:163,_ZSt18uninitialized_copyIN9__gnu_cxx17__normal_iteratorIPKSt8weak_ptrI6WidgetESt6vectorIS4_SaIS4_EEEEPS4_ET0_T_SD_SC_
FNDA:10,_ZSt18uninitialized_copyIN9__gnu_cxx17__normal_iteratorIPKSt8weak_ptrI6WidgetESt6vectorIS4_SaIS4_EEEEPS4_ET0_T_SD_SC_
FN:366,_ZSt22__uninitialized_copy_aIN9__gnu_cxx17__normal_iteratorIPKSt8weak_ptrI6WidgetESt6vectorIS4_SaIS4_EEEEPS4_S4_ET0_T_SD_SC_RSaIT1_E
FNDA:10,_ZSt22__uninitialized_copy_aIN9__gnu_cxx17__normal_iteratorIPKSt8weak_ptrI6WidgetESt6vectorIS4_SaIS4_EEEEPS4_S4_ET0_T_SD_SC_RSaIT1_E
FN:1064,_ZSt19__relocate_object_aISt8weak_ptrI6WidgetES2_SaIS2_EEvPT_PT0_RT1_
FNDA:0,_ZSt19__relocate_object_aISt8weak_ptrI6WidgetES2_SaIS2_EEvPT_PT0_RT1_
FN:1086,_ZSt14__relocate_a_1IPSt8weak_ptrI6WidgetES3_SaIS2_EET0_T_S6_S5_RT1_
FNDA:12,_ZSt14__relocate_a_1IPSt8weak_ptrI6WidgetES3_SaIS2_EET0_T_S6_S5_RT1_
FN:1136,_ZSt12__relocate_aIPSt8weak_ptrI6WidgetES3_SaIS2_EET0_T_S6_S5_RT1_
FNDA:12,_ZSt12__relocate_aIPSt8weak_ptrI6WidgetES3_SaIS2_EET0_T_S6_S5_RT1_
DA:113,10
DA:116,10
DA:119,20
DA:120,10
DA:121,10
DA:135,10
DA:137,10
DA:163,10
DA:174,10
DA:181,10
DA:185,10
DA:366,10
DA:370,10
DA:371,0
DA:373,10
DA:1064,0
DA:1072,0
DA:1073,0
DA:1074,0
DA:1086,12
DA:1098,12
DA:1099,12
DA:1100,0
DA:1102,12
DA:1136,12
DA:1142,12
DA:1144,12
end_of_record
SF:/usr/local/include/c++/13.1.0/bits/exception.h
FN:62,_ZNSt9exceptionC2Ev
FNDA:0,_ZNSt9exceptionC2Ev
DA:62,0
end_of_record
SF:/usr/local/include/c++/13.1.0/bits/stl_construct.h
FN:80,_ZSt10destroy_atISt8weak_ptrI6WidgetEEvPT_
FNDA:16,_ZSt10destroy_atISt8weak_ptrI6WidgetEEvPT_
FN:94,_ZSt12construct_atISt8weak_ptrI6WidgetEJS2_EEDTgsnwcvPvLi0E_T_pispcl7declvalIT0_EEEEPS4_DpOS5_
FNDA:0,_ZSt12construct_atISt8weak_ptrI6WidgetEJS2_EEDTgsnwcvPvLi0E_T_pispcl7declvalIT0_EEEEPS4_DpOS5_
FN:94,_ZSt12construct_atISt8weak_ptrI6WidgetEJRKS2_EEDTgsnwcvPvLi0E_T_pispcl7declvalIT0_EEEEPS6_DpOS7_
FNDA:0,_ZSt12construct_atISt8weak_ptrI6WidgetEJRKS2_EEDTgsnwcvPvLi0E_T_pispcl7declvalIT0_EEEEPS6_DpOS7_
FN:94,_ZSt12construct_atISt8weak_ptrI6WidgetEJSt10shared_ptrIS1_EEEDTgsnwcvPvLi0E_T_pispcl7declvalIT0_EEEEPS6_DpOS7_
FNDA:6,_ZSt12construct_atISt8weak_ptrI6WidgetEJSt10shared_ptrIS1_EEEDTgsnwcvPvLi0E_T_pispcl7declvalIT0_EEEEPS6_DpOS7_
FN:94,_ZSt12construct_atIcJRKcEEDTgsnwcvPvLi0E_T_pispcl7declvalIT0_EEEEPS3_DpOS4_
FNDA:0,_ZSt12construct_atIcJRKcEEDTgsnwcvPvLi0E_T_pispcl7declvalIT0_EEEEPS3_DpOS4_
FN:109,_ZSt10_ConstructISt8weak_ptrI6WidgetEJRKS2_EEvPT_DpOT0_
FNDA:10,_ZSt10_ConstructISt8weak_ptrI6WidgetEJRKS2_EEvPT_DpOT0_
FN:146,_ZSt8_DestroyISt8weak_ptrI6WidgetEEvPT_
FNDA:16,_ZSt8_DestroyISt8weak_ptrI6WidgetEEvPT_
FN:160,_ZNSt12_Destroy_auxILb0EE9__destroyIPSt8weak_ptrI6WidgetEEEvT_S6_
FNDA:18,_ZNSt12_Destroy_auxILb0EE9__destroyIPSt8weak_ptrI6WidgetEEEvT_S6_
FN:182,_ZSt8_DestroyIPSt8weak_ptrI6WidgetEEvT_S4_
FNDA:18,_ZSt8_DestroyIPSt8weak_ptrI6WidgetEEvT_S4_
DA:80,16
DA:88,16
DA:89,16
DA:94,0
DA:97,0
DA:94,0
DA:97,0
DA:94,6
DA:97,6
DA:94,0
DA:97,0
DA:109,10
DA:112,10
DA:115,0
DA:116,0
DA:119,10
DA:146,16
DA:149,16
DA:153,16
DA:160,18
DA:162,34
DA:163,16
DA:164,18
DA:182,18
DA:192,18
DA:193,0
DA:196,18
end_of_record
SF:/usr/local/include/c++/13.1.0/new
FN:174,_ZnwmPv
FNDA:16,_ZnwmPv
DA:174,16
DA:175,16
end_of_record
SF:/usr/local/include/c++/13.1.0/bits/basic_string.h
FN:199,_ZNSt7__cxx1112basic_stringIcSt11char_traitsIcESaIcEE12_Alloc_hiderC2EPcRKS3_
FNDA:15,_ZNSt7__cxx1112basic_stringIcSt11char_traitsIcESaIcEE12_Alloc_hiderC2EPcRKS3_
FN:203,_ZNSt7__cxx1112basic_stringIcSt11char_traitsIcESaIcEE12_Alloc_hiderC2EPcOS3_
FNDA:15,_ZNSt7__cxx1112basic_stringIcSt11char_traitsIcESaIcEE12_Alloc_hiderC2EPcOS3_
FN:223,_ZNSt7__cxx1112basic_stringIcSt11char_traitsIcESaIcEE7_M_dataEPc
FNDA:225,_ZNSt7__cxx1112basic_stringIcSt11char_traitsIcESaIcEE7_M_dataEPc
FN:228,_ZNSt7__cxx1112basic_stringIcSt11char_traitsIcESaIcEE9_M_lengthEm
FNDA:190,_ZNSt7__cxx1112basic_stringIcSt11char_traitsIcESaIcEE9_M_lengthEm
FN:233,_ZNKSt7__cxx1112basic_stringIcSt11char_traitsIcESaIcEE7_M_dataEv
FNDA:1073,_ZNKSt7__cxx1112basic_stringIcSt11char_traitsIcESaIcEE7_M_dataEv
FN:238,_ZNSt7__cxx1112basic_stringIcSt11char_traitsIcESaIcEE13_M_local_dataEv
FNDA:30,_ZNSt7__cxx1112basic_stringIcSt11char_traitsIcESaIcEE13_M_local_dataEv
FN:249,_ZNKSt7__cxx1112basic_stringIcSt11char_traitsIcESaIcEE13_M_local_dataEv
FNDA:630,_ZNKSt7__cxx1112basic_stringIcSt11char_traitsIcESaIcEE13_M_local_dataEv
FN:260,_ZNSt7__cxx1112basic_stringIcSt11char_traitsIcESaIcEE11_M_capacityEm
FNDA:225,_ZNSt7__cxx1112basic_stringIcSt11char_traitsIcESaIcEE11_M_capacityEm
FN:265,_ZNSt7__cxx1112basic_stringIcSt11char_traitsIcESaIcEE13_M_set_lengthEm
FNDA:190,_ZNSt7__cxx1112basic_stringIcSt11char_traitsIcESaIcEE13_M_set_lengthEm
FN:273,_ZNKSt7__cxx1112basic_stringIcSt11char_traitsIcESaIcEE11_M_is_localEv
FNDA:630,_ZNKSt7__cxx1112basic_stringIcSt11char_traitsIcESaIcEE11_M_is_localEv
FN:291,_ZNSt7__cxx1112basic_stringIcSt11char_traitsIcESaIcEE10_M_disposeEv
FNDA:275,_ZNSt7__cxx1112basic_stringIcSt11char_traitsIcESaIcEE10_M_disposeEv
FN:299,_ZNSt7__cxx1112basic_stringIcSt11char_traitsIcESaIcEE10_M_destroyEm
FNDA:33,_ZNSt7__cxx1112basic_stringIcSt11char_traitsIcESaIcEE10_M_destroyEm
FN:347,_ZNSt7__cxx1112basic_stringIcSt11char_traitsIcESaIcEE16_M_get_allocatorEv
FNDA:691,_ZNSt7__cxx1112basic_stringIcSt11char_traitsIcESaIcEE16_M_get_allocatorEv
FN:352,_ZNKSt7__cxx1112basic_stringIcSt11char_traitsIcESaIcEE16_M_get_allocatorEv
FNDA:896,_ZNKSt7__cxx1112basic_stringIcSt11char_traitsIcESaIcEE16_M_get_allocatorEv
FN:398,_ZNKSt7__cxx1112basic_stringIcSt11char_traitsIcESaIcEE15_M_check_lengthEmmPKc
FNDA:0,_ZNKSt7__cxx1112basic_stringIcSt11char_traitsIcESaIcEE15_M_check_lengthEmmPKc
FN:426,_ZNSt7__cxx1112basic_stringIcSt11char_traitsIcESaIcEE7_S_copyEPcPKcm
FNDA:385,_ZNSt7__cxx1112basic_stringIcSt11char_traitsIcESaIcEE7_S_copyEPcPKcm
FN:478,_ZNSt7__cxx1112basic_stringIcSt11char_traitsIcESaIcEE13_S_copy_charsEPcS5_S5_
FNDA:15,_ZNSt7__cxx1112basic_stringIcSt11char_traitsIcESaIcEE13_S_copy_charsEPcS5_S5_
FN:483,_ZNSt7__cxx1112basic_stringIcSt11char_traitsIcESaIcEE13_S_copy_charsEPcPKcS7_
FNDA:15,_ZNSt7__cxx1112basic_stringIcSt11char_traitsIcESaIcEE13_S_copy_charsEPcPKcS7_
FN:523,_ZNSt7__cxx1112basic_stringIcSt11char_traitsIcESaIcEEC2Ev
FNDA:0,_ZNSt7__cxx1112basic_stringIcSt11char_traitsIcESaIcEEC2Ev
FN:548,_ZNSt7__cxx1112basic_stringIcSt11char_traitsIcESaIcEEC2ERKS4_
FNDA:15,_ZNSt7__cxx1112basic_stringIcSt11char_traitsIcESaIcEEC2ERKS4_
FN:642,_ZNSt7__cxx1112basic_stringIcSt11char_traitsIcESaIcEEC2IS3_EEPKcRKS3_
FNDA:15,_ZNSt7__cxx1112basic_stringIcSt11char_traitsIcESaIcEEC2IS3_EEPKcRKS3_
FN:802,_ZNSt7__cxx1112basic_stringIcSt11char_traitsIcESaIcEED2Ev
FNDA:70,_ZNSt7__cxx1112basic_stringIcSt11char_traitsIcESaIcEED2Ev
FN:1070,_ZNKSt7__cxx1112basic_stringIcSt11char_traitsIcESaIcEE4sizeEv
FNDA:320,_ZNKSt7__cxx1112basic_stringIcSt11char_traitsIcESaIcEE4sizeEv
FN:1077,_ZNKSt7__cxx1112basic_stringIcSt11char_traitsIcESaIcEE6lengthEv
FNDA:405,_ZNKSt7__cxx1112basic_stringIcSt11char_traitsIcESaIcEE6lengthEv
FN:1083,_ZNKSt7__cxx1112basic_stringIcSt11char_traitsIcESaIcEE8max_sizeEv
FNDA:881,_ZNKSt7__cxx1112basic_stringIcSt11char_traitsIcESaIcEE8max_sizeEv
FN:1168,_ZNKSt7__cxx1112basic_stringIcSt11char_traitsIcESaIcEE8capacityEv
FNDA:355,_ZNKSt7__cxx1112basic_stringIcSt11char_traitsIcESaIcEE8capacityEv
FN:1468,_ZNSt7__cxx1112basic_stringIcSt11char_traitsIcESaIcEE6appendEPKc
FNDA:0,_ZNSt7__cxx1112basic_stringIcSt11char_traitsIcESaIcEE6appendEPKc
FN:2594,_ZNKSt7__cxx1112basic_stringIcSt11char_traitsIcESaIcEE5c_strEv
FNDA:0,_ZNKSt7__cxx1112basic_stringIcSt11char_traitsIcESaIcEE5c_strEv
DA:199,15
DA:200,15
DA:203,15
DA:204,15
DA:223,225
DA:224,225
DA:228,190
DA:229,190
DA:233,1073
DA:234,1073
DA:238,30
DA:241,30
DA:249,630
DA:252,630
DA:260,225
DA:261,225
DA:265,190
DA:267,190
DA:268,190
DA:269,190
DA:273,630
DA:275,630
DA:277,597
DA:278,0
DA:279,597
DA:281,33
DA:291,275
DA:293,275
DA:294,33
DA:295,275
DA:299,33
DA:300,33
DA:347,691
DA:348,691
DA:352,896
DA:353,896
DA:362,0
DA:363,0
DA:364,0
DA:366,0
DA:398,0
DA:400,0
DA:401,0
DA:402,0
DA:426,385
DA:428,385
DA:429,43
DA:431,342
DA:432,385
DA:478,15
DA:479,15
DA:483,15
DA:485,15
DA:523,0
DA:525,0
DA:528,0
DA:529,0
DA:548,15
DA:549,15
DA:550,15
DA:552,15
DA:554,15
DA:642,15
DA:643,15
DA:646,15
DA:647,0
DA:649,15
DA:650,15
DA:651,15
DA:802,70
DA:803,70
DA:1070,320
DA:1071,320
DA:1077,405
DA:1078,405
DA:1083,881
DA:1084,1762
DA:1168,355
DA:1170,355
DA:1171,355
DA:1468,0
DA:1471,0
DA:1472,0
DA:1473,0
DA:2594,0
DA:2595,0
end_of_record
